(lp0
S'ABU BAKAR BLOCK           NEW GARDEN TOWN LHR  '
p1
aS'H NO  AHMAD BLOCK           NEW GARDEN TOWN LHR  '
p2
aS'AHMAD BLOCK NEW GARDEN TOWNLHR                  '
p3
aS'A AHMED BLOCK              LHR                  '
p4
aS'ABU BAKAR BLOCK NGTTOWNLHR                  '
p5
aS'ABU BAKAR BLOCK           NEW GARDEN TOWN LHR  '
p6
aS'H AUBAKAR BLOCK GARDEN    TOWN LHR             '
p7
aS'AHMAD BLOCK                 LHR                  '
p8
aS'SECTRY MASGAD BADAR           AHMADPARK          '
p9
aS'SHOP MASJID BADAR           AHMAD BLOCK NEW GTO '
p10
aS'AHMAD BLOCK                 LHR                  '
p11
aS'AHMAD BLOCK                LHR                  '
p12
aS'AHMAD BLOCK                LHR                  '
p13
aS'AHMAD BLOCK                LHR                  '
p14
aS'AHMAD BLOCK                LHR                  '
p15
aS'A AHMED BLK G TOWN         LHR                  '
p16
aS'AHMED BLK N G TOWN         LHR                  '
p17
aS'AHMAD BLOCK                NEW GARDEN TOWN LHR  '
p18
aS'AHMED BLK N G TOWN         LR                   '
p19
aS'AHMED BLK N G TOWN         LHR                  '
p20
aS'A ABU BAKAR BLOCK GARDEN  TOWN LHR             '
p21
aS'ABUBAKAR BLOCK            LHR                  '
p22
aS'ABU BAKAR BL N GARDEN TOWNLH                   '
p23
aS'H NO  AHMAD BLOCK           NEW GARDEN TOWN LHR  '
p24
aS'PVT LTD  ABU BAKER BL N GTLHR                  '
p25
aS'ABU BAKER BLK  NEW GARDEN LHR                  '
p26
aS'AHMED PARK N G TOWN        LHR                  '
p27
aS'AHMAD BLOCK                LHR                  '
p28
aS'AHMED BLK NG TOWN          LHR                  '
p29
aS'AHMAD BLOCK               NEW GARDEN TOWN LHR  '
p30
aS'ABU BAKAR                 GARDEN TOWN LHR      '
p31
aS'ABU BAKAR BLOCK           LHR                  '
p32
aS'AHMAD PRK                  LHR                  '
p33
aS'AHMAD BLOCK                NEW GARDEN TOWN LHR  '
p34
aS'AI AHMED BLOCK            NEW GARDEN TOWN LHR  '
p35
aS'AHMED BLOCK NEW GARDEN TOWNLAHORE               '
p36
aS'AHMED BLOCK                NEW GARDEN TOWN LHR  '
p37
aS'A AHMED BLK GARDEN TOWN    LHR                  '
p38
aS'AHMED PARK                 LHR                  '
p39
aS'H NO  AHMAD BLOCK           GARDEN TOWN LHR      '
p40
aS'B AHMAD BLOCK              NEW GARDEN TOWN LHR  '
p41
aS'A AHMAD PARK               LHR                  '
p42
aS'AHMED BLK N G TOWN         LHR                  '
p43
aS'A AHMED BLOCK              NEW GARDEN TOWN LHR  '
p44
aS'AHMED BLK NENG TOWN        LHR                  '
p45
aS'H NO G                     AHMAD BLOCK GARDEN T '
p46
aS'AMAD BLOCK ND FLOOR G TOWNLHR                  '
p47
aS'AHMAD PARK NEW G TOWN      LHR                  '
p48
aS'AHMED BLOCK                NEW GARDEN TOWN LHR  '
p49
aS'AHMED BLOCK NEW GARDEN TOWNLHR                  '
p50
aS'A AHMED BLGTOWN          LHR                  '
p51
aS'A AHMED BL N GARDEN TOWN   LHR                  '
p52
aS'AHMAD BLK                  NEW GARDEN TOWN LHR  '
p53
aS'AHMAD BLOCK                GARDEN TOWN LHR      '
p54
aS'B AHMED BLOCK NEW GARDEN    TOWN LHR             '
p55
aS'I AHMED BLK NEW G TOWN        LHR                  '
p56
aS'AHMAD PARK                 LHR                  '
p57
aS'AHMAD BLOCK                 NEW GARDEN TOWN LHR  '
p58
aS'AHMAD BLOCK                 NEW GARDEN TOWN LHR  '
p59
aS'AHMAD PARK                 LHR                  '
p60
aS'AHMAD BLOCK NEW GTOWN                           '
p61
aS'PNOC AHMED BLOCK NEW      GARDEN TOWN LHR      '
p62
aS'A AHMAD PARK               LHR                  '
p63
aS'PNOB AHMED BLOCK NEW      GARDEN TOWN LHR      '
p64
aS'AHMED BLK N G TOWN          LHR                  '
p65
aS'H  AHMAD PARK               LHR                  '
p66
aS'H NO  AHMED BLOCK            NEW GARDEN TOWN LHR  '
p67
aS'A AHMED BO GTOWN           LHR                  '
p68
aS'A AHMED BO GTOWN           LHR                  '
p69
aS'AHMAD PARK                 LHR                  '
p70
aS'AHMAD PARK                 LHR                  '
p71
aS'AHMED BLK N GARDEN TOWN  LHR                  '
p72
aS'A AHMED BLOCK               GARDEN TOWN LHR      '
p73
aS'AHMAD PARK NEW GTOWN       LHR                  '
p74
aS'AHMED BLK GARDEN TOWN       LAHORE               '
p75
aS'A AHMAD BLOCK               LHR                  '
p76
aS'C AHMAD BLOCK                LHR                  '
p77
aS'C AHMAD BLOCK                LHR                  '
p78
aS'E AHMED BLOCK NEW GARDEN  TOWN LHR             '
p79
aS'F AHMED BLOCK             NEW GARDEN TOWN LHR  '
p80
aS'FLAT NO D NEW GARDEN     TOWN                 '
p81
aS'AHMED BLOCK                LHR                  '
p82
aS'AHMAD BLOCK                NEW GARDEN TOWN LHR  '
p83
aS'AHMMAD BLOCK  TOWN        LHR                  '
p84
aS'A AHMAD BLOCK             NEW GARDEN TOWN LHR  '
p85
aS'A AHMED BLCOK              LHR                  '
p86
aS'A AHMED BLOCK              NEW GARDEN TOWN LHR  '
p87
aS'H  AHMAD PARK               LHR                  '
p88
aS'AHMAD PARK                 LHR                  '
p89
aS'AHMED BLOCK GARDEN TOWN    LHR                  '
p90
aS'A AHMAD BLOCK              NEW GARDEN TOWN LHR  '
p91
aS'C AHMED BLOCK GARDEN TOWN  LHR                  '
p92
aS'C AHMED BLOCK GARDEN TOWN  LHR                  '
p93
aS'A AHMED BLOCK              NEW GARDEN TOWN LHR  '
p94
aS'B AHMED BLK NGTOWN       LHR                  '
p95
aS'B AHMED BLOCK              NEW GARDEN TOWN LHR  '
p96
aS'B AHMAD BLOCK              NEW GARDEN TOWN      '
p97
aS'AHMED PARK                 LHR                  '
p98
aS'AHMED BLK N G TOWN         LHR                  '
p99
aS'AHMAD BLOCK N GTOWN       LHR                  '
p100
aS'OPP NOON AVENUE MUSLIM TOWN   LHR                  '
p101
aS'A AHMED BLK N G TOWN       LHR                  '
p102
aS'AHMED BLOCK                NEW GARDEN TOWN LHR  '
p103
aS'AHMED BLOCK NEW GARDEN TOWNLHR                  '
p104
aS'A AHMAD BLOCK              NEW GARDEN TOWN LHR  '
p105
aS'AHMAD BLK N G TOWN         LHR                  '
p106
aS'A BLOCK A AHMAD BLOCK      NEW GARDEN TOWN LHR  '
p107
aS'AHMAD PARK                 LHR                  '
p108
aS'P NO  AHMED BLK             NEW GARDEN TOWN LHR  '
p109
aS'P NO  AHMED BLK             NEW GARDEN TOWN LHR  '
p110
aS'AHMAD BLK                  NEW GARDEN TOWN LHR  '
p111
aS'AHMED BLK NEW GARDEN TWON  LHR                  '
p112
aS'A AHMED BLOCK              NEW GARDEN TOWN LHR  '
p113
aS'AHMAD PARK                 LHR                  '
p114
aS'HNO BAHMED BLOCK NEW     GARDEN TOWN LHR      '
p115
aS'AHMED BLOCK                NEW GARDEN TOWN LHR  '
p116
aS'AHMAD BLK                  GARDEN TOWN LHR      '
p117
aS'AHMAD PAR OPP NOON AVENUE     LHR                  '
p118
aS'C AHMAD BLOCK             NEW GARDEN TOWN LHR  '
p119
aS'AHMAD BLK                  LHR                  '
p120
aS'AHMED BLOCK NEW GARDEN    TOWN LHR             '
p121
aS'A AHMED BLOCK             NEW GARDEN TOWN LHR  '
p122
aS'AHMED BLOCK               NEW GARDEN TOWN LHR  '
p123
aS'AHMED BLOCK NEW GARDAN    TOWN LHR             '
p124
aS'AHMED BLOCK               LHR                  '
p125
aS'AHMAD BL NGTOWN         LHR                  '
p126
aS'AHMED BLOCK N G TOWN LHR                       '
p127
aS'A AHMAD BLK G TOWN        LHR                  '
p128
aS'H  A I AHMAD BL NEW G TWN  LHR                  '
p129
aS'A AHMED BLK GARDEN TOWN   LHR                  '
p130
aS'A AHMAD BLOCK  NEW         GARDEN TOWN LHR      '
p131
aS'A AHMED BLOCK             NEW GARDEN TOWN LHR  '
p132
aS'AHMAD PARK                 GULBERG LHR          '
p133
aS'H  AHMAD PARK               LHR                  '
p134
aS'AHMED BLOCK GARDEN        TOWN LHR             '
p135
aS'AHMED BLOCK UPPER PORTION NEW GARDEN TOWN LHR  '
p136
aS'AHMED BLOCK               NEW GARDEN TOWN LHR  '
p137
aS'H  AHMAD PARK GULBERG       LHR                  '
p138
aS'AHMED BLOCK               NEW GARDEN TOWN LHR  '
p139
aS'AHMED BLK GTOWN       LHR                  '
p140
aS'AHMED BLOCK               NEW GARDEN TOWN LHR  '
p141
aS'H  AHMAD PARK GULBERG       LHR                  '
p142
aS'AHMED BLOCK               NEW GARDEN TOWN LHR  '
p143
aS'AHMAD BL NEW GARDEN TOWLHR                  '
p144
aS'AHMAD BLOCK NEW           GARDEN TOWN LHR      '
p145
aS'AHMAD BL NEW GARDEN TOWLHR                  '
p146
aS'H NO A AHMED BLOCK        GARDEN TOWN LHR      '
p147
aS'H NO  AHMED BLOCK NEW   GARDEN TOWN LAHORE   '
p148
aS'AHMAD BLK N G TOWN     LHR                  '
p149
aS'C AHMAD BLOCK             NEW GTOWN           '
p150
aS'AHMAD BLK N G TOWN         LHR                  '
p151
aS'AHMAD BLOCK NEW GARDAN    TOWN LHR             '
p152
aS'AHMED BLOCK               NEW GARDEN TOWN LHR  '
p153
aS'AHMED BLK NEW GARDEN TOWN ELHR                  '
p154
aS'AI AHMAD BLOCK        NEW GARDEN TOWN LHR  '
p155
aS'A AHMAD BLOCK G TOWN          LHR                  '
p156
aS'A AHMAD BLOCK             NEW GARDEN TOWN LHR  '
p157
aS'AHMAD PARK GARDAN TOWN   LHR                  '
p158
aS'AHMAD BLOCK N GARDEN TOWN LHR                  '
p159
aS'C I  AHMED BLOCK G TOWN      LH                   '
p160
aS'B IV AHMED BL G TOWN        LHR                  '
p161
aS'B III  AHMED BLOCK G T       LHR                  '
p162
aS'CIII AHMED BLK G TOWN        LHR                  '
p163
aS'C AHMED BLNEW GTOWN     LHR                  '
p164
aS'B AHMAD BL GARDEN TOWN    LHR                  '
p165
aS'CAHMED BLK GARDEN TOWN   LHR                  '
p166
aS'EIAHMED BLK GARDEN TOWN   LHR                  '
p167
aS'E  AHMED BLOCK             GARDEN TOWN LHR      '
p168
aS'D  AHMAD BLK GARDEN TOWN  LAHORE               '
p169
aS'D AHMAD BLK GARDEN TOWN   LHR                  '
p170
aS'DAHMED BLK GARDEN TOWN   LHR                  '
p171
aS'DIII AHMED BLOCK GARDEN    TOWN LHR             '
p172
aS'D AHMED BLK NEW GARDEN TOWLHR                  '
p173
aS'EAHMED BLOCKGTOWN      L                    '
p174
aS'CII AHMED BLK G TOWN         LHR                  '
p175
aS'C II AHMED BLK              GARDEN TOWN LHR      '
p176
aS'E AHMED BLK GARDEN TOWN   LHR                  '
p177
aS'AAHMED BL G TOWN         LHR                  '
p178
aS'BII AHMED BLOCK            GARDEN TOWN LHR      '
p179
aS'A AHMED BLOCK             NEW GARDEN TOWN LHR  '
p180
aS'H NOA IV  AHMED BL           G TOWN               '
p181
aS'H NO A AHMED BL G TOWN       LHR                  '
p182
aS'H NO A  AHMED BL G TOWN     LHR                  '
p183
aS'AHMED BLOCK N GARDEN TOWN LHR                  '
p184
aS'A AHMAD BLOCK NEW G  TOWLAHORE CENTRE QUATER '
p185
aS'H A  AHMAD BL G TOWN        LHR                  '
p186
aS'A I AHMAD BLOCK             NEW GARDEN TOWN LHR  '
p187
aS'AHMAD BLK NEW GARDEN TOWN  LAHORE               '
p188
aS'AHMAD BLK G TOWN           LHR                  '
p189
aS'H NO E AHMED BLOCK         GARDEN TOWN LHR      '
p190
aS'E AHMAD BLOCK GARDEN TOWN  LHR                  '
p191
aS'CC  AHMED BLK N G TOWN      LHR                  '
p192
aS'II A AHMED BLK NEW G TOWN    LHR                  '
p193
aS'AI CANAL COURTS AHMED BLK NEW GARDEN TOWN LHR  '
p194
aS'CC  AHMED BLK N G TOWN    LHR                  '
p195
aS'CC  AHMED BLK N G TOWN    LHR                  '
p196
aS'D CC AHMED BLOCK    NEW GARDEN TOWN LHR  '
p197
aS'CC  AHMED BLK N G TOWN    LHR                  '
p198
aS'CII AHMED BLOCK           NEW GARDEN TOWN LHR  '
p199
aS'CC  AHMED BLK N G TOWN    LHR                  '
p200
aS'CC AHMED BLK N G TOWN    L                    '
p201
aS'A AHMED BLOCK              LHR                  '
p202
aS'B AHMED BLK N G TOWN       LHR                  '
p203
aS'AHMED BLK                  NEW GARDEN TOWN LHR  '
p204
aS'H NO AHMED BLOCK NEW GARDENTOWN LAHORE          '
p205
aS'C AHMAD BLOCK              LHR                  '
p206
aS'AHMED BLOCK                NEW GARDEN TOWN LHR  '
p207
aS'C AHMADBL N M TOWN          LHR                  '
p208
aS'A AHMAD PARK               LHR                  '
p209
aS'A AHMAD BLK G TOWN          LHR                  '
p210
aS'B AHMAD PARK               LHR                  '
p211
aS'SERVANT QUARTER NO         AHMAD BLOCK GTOWN   '
p212
aS'B AHMED BL                 NGTOWN LHR         '
p213
aS'AHMED BLK NEW GARDEN TOWN  LHR                  '
p214
aS'AHMED BLK G TOWN           LHR                  '
p215
aS'AHMAD BLOCK                NEW GARDEN TOWN LHR  '
p216
aS'A AHMED BLOCK NEW GARDEN TOLHR                  '
p217
aS'AHMED BLOCK NGTOWN       LHR                  '
p218
aS'AHMED BLK NEW GARDEN TOWN  LHR                  '
p219
aS'AHMAD PARK                 LHR                  '
p220
aS'AHMAD BLOCK NEW GARDEN TOWLAHORE               '
p221
aS'AHMAD BLK N GARDEN TOWN    LHR                  '
p222
aS'AHMED BLK N G TOWN         LHR                  '
p223
aS'AHMED BLOCK                NEW GAREN TOWN LHR   '
p224
aS'AHMAD BL GARDEN TOWN       LHR                  '
p225
aS'A AHMED BLOCK G TOWN        LHR                  '
p226
aS'AHMED BLK G TOWN           LHR                  '
p227
aS'AHMED BLK                  GARDEN TOWN LHR      '
p228
aS'A AHMAD BL NEW GARDEN TOWN LHR                  '
p229
aS'AHMEDBLOCKNEWGARDENTOWNLHR                  '
p230
aS'KHOKHA NEAR AHMAD BLOCK    LHR                  '
p231
aS'AHMEDBLOCK NEW GARDEN TOWNLHR                  '
p232
aS'USMAN BL GARDEN TOWN       LHR                  '
p233
aS'AHMED BLOCK GARDEN TOWN    LAHORE               '
p234
aS'AHMED BLOCK                GARDEN TOWN LHR      '
p235
aS'B AHMMAD BLOCK G TOWN      LHR                  '
p236
aS'AHMAD BLOCK                NEW GARDEN TOWN LHR  '
p237
aS'AHMED BLOCK                NEW GARDEN TOWN LAHO '
p238
aS'AHMED BLOCK                NEW GARDEN TOWN LAHO '
p239
aS'H NO  AHMED BLOCKUPORTIONNEW GARDEN TOWN LHR  '
p240
aS'A AHMAD BLOCK              LHR                  '
p241
aS'AHMED BLOCK N GARDEN TOWN  LHR                  '
p242
aS'AHMED BLOCK N GARDEN TOWN  LHR                  '
p243
aS'AHMED BLK G TOWN           LHR                  '
p244
aS'AHMED BLK NEW G TOWN       LHR                  '
p245
aS'AHMAD BLOCK GARDEN TOWN    LHR                  '
p246
aS'AHMED BLK                  NEW GARDEN TOWN LHR  '
p247
aS'AHMED BLK N G TOWN         LHR                  '
p248
aS'AHMED BLOCK NEW GARDEN TOWNLHR                  '
p249
aS'A AHMED BLOCK              GARDEN TOWN LHR      '
p250
aS'AHMED BLOCK               NEW GARDEN TOWN LHR  '
p251
aS'AHMED BL G TOWN           LHR                  '
p252
aS'M AHMAD BL                 LHR                  '
p253
aS'A AHMED BLK NG TOWN LHR                         '
p254
aS'AHMAD BLOCK                NEW GARDEN TOWN LHR  '
p255
aS'AHMED BLK N G TOWN         LHR                  '
p256
aS'AHMAD BL NEW GR TOWN      LHR                  '
p257
aS'A AHMED BLK GTOWN         LHR                  '
p258
aS'AHMED BLK GTOWN           LHR                  '
p259
aS'A AHMED BLOCK NEW GAREN TOWLHR                  '
p260
aS'A ABUBAKER BLOCK GARDEN TOWNLHR                  '
p261
aS'AHMED BLK N GARDEN TOWN    LHR                  '
p262
aS'AMAD BLOCK NEW GARDEN TOWN LHR                  '
p263
aS'A AHMAD BLK GARDEN TOWN   LHR                  '
p264
aS'AHMED BLK NEW GARDEN TOWN UPPER PORTION LHR    '
p265
aS'AHMAD BLOCK               NGTOWN LHR         '
p266
aS'B AHMED BL G TOWN         LHR                  '
p267
aS'A AHMED BL N GARDEN TOWN   LHR                  '
p268
aS'AHMED BLK N G TOWN         LHR                  '
p269
aS'H NO  AHMAD BLOCK           NEW GARDEN TOWN LHR  '
p270
aS'AHMAD BL N G TOWN         LHR                  '
p271
aS'AHMAD BLOCK               NEW GARDEN TOWN LHR  '
p272
aS'A AHMED BLOCK             NEW GARDEN TOWN LHR  '
p273
aS'H NO AHMED BLOCK          NEW GARDEN TOWN LHR  '
p274
aS'A I AHMAD BL NEW GARDEN TOLHR                  '
p275
aS'A AHMAD BLOCK NEW GARDEN TLHR                  '
p276
aS'AHMAD BLK                 NEW GARDEN TOWN LHR  '
p277
aS'A AHMED BLOCK             NEW GARDEN TOWN LHR  '
p278
aS'A AHMAD BLK N GARDEN TOWN LHR                  '
p279
aS'A AHMAD BLK N GARDEN TOWN LHR                  '
p280
aS'A AHMED BLOCK              LAHORE               '
p281
aS'AHMAD PARK N G TOWN       LHR                  '
p282
aS'H NO A AHMAD BLOCK         GARDEN TOWN LHR      '
p283
aS'AHMED BLOCK NEW GARDEN TOWNLHR                  '
p284
aS'AHMED BLOCK NEW GARDEN TOWNLHR                  '
p285
aS'H NO A AHMED BLOCK NEW     GARDEN TOWN LAHORE   '
p286
aS'A AHMAD BLOCK NEW GARDAN   TOWN  LHR            '
p287
aS'B AHMED BLOCK              NEW GARDEN TOWN LHR  '
p288
aS'AHMED BLOCK                NEW GARDEN TOWN LHR  '
p289
aS'C AHMAD BLOCK              GARDEN TOWN LHR      '
p290
aS'AHMED BLOCK NEW GARDEN TOWNLHR                  '
p291
aS'AHMAD PARK                 LHR                  '
p292
aS'AHMED BLOCK GARDEN         LHR                  '
p293
aS'A AHMED BLOCK LOWER PORTIONGARDEN TOWN LAHORE   '
p294
aS'A AHMED BLOCK GARDEN TOWN  LHR UPPER PORTION  '
p295
aS'AHMED PARK GARDEN TOWN     LAHORE               '
p296
aS'B AHMAD BLK G TOWN         LHR                  '
p297
aS'AHMED BLOCK N GARDEN TOWN  LHR                  '
p298
aS'AHMED BLOCK                NEW GARDEN TOWN LHR  '
p299
aS'A AHMAD BLOCK              NEW GARDEN TOWN LHR  '
p300
aS'AHMAD BLOCK NEW GARDEN TOWNLHR                  '
p301
aS'I AHMED BLOCK GARDEN TOWN  LHR                  '
p302
aS'A AHMED BLOCK              NEW GARDEN TOWN LHR  '
p303
aS'A AHMED BLOCK              NEW GARDEN TOWN LHR  '
p304
aS'AHMAD BLK GARDEN TOWN      LHR                  '
p305
aS'AHMED BLOCK NEW GARDEN TOWNLHR                  '
p306
aS'AHMED BLK                  NEW GARDEN TOWN LHR  '
p307
aS'B AHMED BLK                GARDEN TOWN LHR      '
p308
aS'A AHMAD BL                 LHR                  '
p309
aS'AHMED BLK                  NEW GARDEN TOWN LHR  '
p310
aS'AHMED BLOCK GARDEN TOWN    LHR                  '
p311
aS'H NO  AHMED BLOCK           NEW GARDEN TOWN LHR  '
p312
aS'AHMED BLOCK NEW GARDEN TOWNLHR                  '
p313
aS'A AHMED BLOCK              GARDEN TOWN LHR      '
p314
aS'AHMED BLOCK GARDEN TOWN    LHR                  '
p315
aS'AHMAD BLK                  LHR                  '
p316
aS'H NO A AHMED BLOCK NEW     GARDEN TOWN LHR      '
p317
aS'AHMAD PARK N G TOWN        LHR                  '
p318
aS'AHMAD BLOCK                NEW GARDEN TOWN LHR  '
p319
aS'IIND POR  AHMED BLK GARDEN TLHR                  '
p320
aS'B AHMED BLOCK GARDEN TOWN LHR                  '
p321
aS'B AHMED BLK NEW GTOWN     LHR                  '
p322
aS'A AHMED BLOCK             GARDEN TOWN LHR      '
p323
aS'A AHMED BLOCK N G TOWN     LHR                  '
p324
aS'H NO AHMED BLOCK NEW GARDENTOWN LAHORE          '
p325
aS'AHMAD BLOCK                LAHORE               '
p326
aS'AHMMAD BLOCK  TOWN        LHR                  '
p327
aS'A AHMED BLOCK G TOWN       LHR                  '
p328
aS'A BLK AHMAD                NEW GARDEN TOWN LHR  '
p329
aS'AHMED BLOCK NGTOWN       LHR                  '
p330
aS'CAHMED BLOCK N G TONW LHR                      '
p331
aS'B AHMED BLOCK N G TOWN LHR                      '
p332
aS'B AHMAD BLOCK              NEW GTOWN           '
p333
aS'D AHMED BLOCK NGTOWN     LHR                  '
p334
aS'P NO  AHMED BLOCK           NEW GARDEN TOWN LHR  '
p335
aS'AHMED BLOCK NEW GARDEN TOWNLHR                  '
p336
aS'AHMAD PARK GARDEN TOWN        LAHORE               '
p337
aS'A AHMED BLOCK              NEW GARDEN TOWN LHR  '
p338
aS'A AHMED BLOCK              NEW GARDEN TOWN LHR  '
p339
aS'H  ND AHMAD PARK           LHR                  '
p340
aS'H  RD AHMAD PARK           LHR                  '
p341
aS'AHMED BLOCK                NEW GARDEN TOWN LHR  '
p342
aS'H  ST AHMAD PARK           LHR                  '
p343
aS'C AHMAD BLOCK NEW GARDAN   TOWN LHR             '
p344
aS'C AHMAD BLOCK              NEW GARDEN TOWN LHR  '
p345
aS'CANAL BANK AHMAD PARK      LHR                  '
p346
aS'AHMED BLK N G TOWN         LHR                  '
p347
aS'AHMAD BL NEW GT           LHR                  '
p348
aS'AHMAD PARK                 LHR                  '
p349
aS'AHMAD PARK                 LHR                  '
p350
aS'AHMAD PARK                 LHR                  '
p351
aS'A AHMED BLOCK             NEW GARDEN TOWN LHR  '
p352
aS'A AHMED BLOCK             GARDEN TOWN LHR      '
p353
aS'A AHMED BLK NEW GARDEN    TOWN LHR             '
p354
aS'AHMED BLOCK               NEW GARDEN TOWN LHR  '
p355
aS'AHMED BLOCK               NEW GARDEN TOWN LHR  '
p356
ag337
aS'A AHMAD BLOCK             NEW GARDEN TOWN LHR  '
p357
aS'A AHMAD BLOCK GARDEN TOWN LHR                  '
p358
aS'I AHMED BLOCK G TOWN      LHR                  '
p359
aS'A F AHMED B GARDEN TOWN   LHR                  '
p360
aS'A I AHMED BLOCK           NEW GARDEN TOWN LHR  '
p361
aS'II AHMAD BLK NGT          LHR                  '
p362
aS'AHMAD BLOCK             NEW GARDEN TOWN LHR  '
p363
aS'AHMED BLOCK             NEW GARDEN TOWN LHR  '
p364
aS'III AHMAD BLK NGT         LHR                  '
p365
aS'A AHMED BLK GARDEN TOWN   LHR                  '
p366
aS'A AHMAD B GARDEN TOWN     LHR                  '
p367
aS'A AHMAD BLK GARDEN TOWN   LHR                  '
p368
aS'H  AHMAD BLK N G T         LHR                  '
p369
aS'H  AHMAD BLK N G T         LHR                  '
p370
aS'H NO AHMED BLOCK NEW      GARDEN TOWN LHR      '
p371
aS'AHMAD                     LHR                  '
p372
aS'A AHMED BLK N G TOWN      LHR                  '
p373
aS'A AHMED BLOCK             NEW GARDEN TOWN LHR  '
p374
aS'AHMAD BLK                 LHR                  '
p375
aS'AHMAD BLOCK               NEW GARDEN TOWN LHR  '
p376
aS'AHMAD BLK                 NEW GARDEN TOWN LHR  '
p377
aS'A AHMAD BLOCK NEW GARDAN  TOWN LHR             '
p378
aS'H NO AHMED BLOCK NEW      GARDEN TOWN LAHORE   '
p379
aS'D AHMAD BLK               NEW GARDEN TOWN LHR  '
p380
aS'A AHMAD BLOCK N GARDEN TWONLHR                  '
p381
aS'A AHMAD BLOCK              NEW GARDEN TOWN      '
p382
aS'H NO B AHMED BLOCK NEW    GARDEN TOWN LHR      '
p383
aS'B AHMED BLOCK             NEW GARDEN TOWN LHR  '
p384
aS'H NO C AHMED BLOCK NEW    GARDEN TOWN LHR      '
p385
aS'AHMED PARK                 LHR                  '
p386
aS'AHMED BLOCK               NEW GARDEN TOWN LHR  '
p387
aS'A AHMAD BLOCK             NEW GARDEN TOWN LHR  '
p388
aS'HNOB AHMED BLOCK NEW    GARDEN TOWN LHR      '
p389
aS'AHMAD PARK                 LHR                  '
p390
aS'A AHMAD BLK GROUND FLOOR G LH                   '
p391
aS'A AHMAD BLOCK              NEW GARDEN TOWN LHR  '
p392
aS'A AHMAD BLOCK              NEW GARDEN TOWN LHR  '
p393
aS'H  AHMED BL NEW MUSLIM TLHR                  '
p394
aS'AHMAD BLOCK NEW GTOWN                      '
p395
aS'A AHMAD BLOCK              NGARDEN TOWN LHR    '
p396
aS'AHMAD BLK                 LHR                  '
p397
aS'AHMAD BLOCK               NEW GTOWN           '
p398
aS'H NO  AHMED BLOCK          NEW GARDEN TOWN LHR  '
p399
aS'A I AHMED BLK N G TOWN    LHR                  '
p400
aS'H  AHMAD BLOCK             LHR                  '
p401
aS'A AHMAD BLK N G TOWN      LHR                  '
p402
aS'AI AHMED BL GTOWN       LHR                  '
p403
aS'I AHMAD BLOCK             NEW GARDEN TOWN LHR  '
p404
aS'AHMED BLOCK               LHR                  '
p405
aS'AHMED BLK GARDEN TOWN     LHR                  '
p406
aS'B AHMAD BLOCK NEW                              '
p407
aS'AHMAD BLOCK GTOWN        LHR                  '
p408
aS'AHMAD PARK                LHR                  '
p409
aS'AHMED BLOCK NGTOWN      LHR                  '
p410
aS'AHMED BLOCK GARDEN TOWN   LHR                  '
p411
aS'A AHMAD PARK GULBERG      LHR                  '
p412
aS'AHMAD PARK GULBERG        LHR                  '
p413
aS'A AHMAD BLK               NEW GARDEN TOWN LHR  '
p414
aS'B AHMAD PARK GULBERG      LHR                  '
p415
aS'AHMAD BLOCK               GARDEN TOWN LHR      '
p416
aS'AHMAD BLOCK               NEW GARDEN TOWN LHR  '
p417
aS'AHMAD BLK                 LHR                  '
p418
aS'A AHMAD BLOCK             NEW GARDEN TOWN LHR  '
p419
aS'H NO AHMED BLOCK NEW      GARDEN TOWN LHR      '
p420
aS'AHD BLK GTOWN            LHR                  '
p421
aS'AHMED BLOCK N G TOWN LHR                       '
p422
aS'ABU BAKER BLK GTOWN      LHR                  '
p423
aS'A AHMAD PARK               LHR                  '
p424
aS'A AHMED BLOCK GTOWN      LHR                  '
p425
aS'A AHMAD BLOCK             NEW GARDEN TOWN LHR  '
p426
aS'AHMED BLK N G TOWN        LHR                  '
p427
aS'AHMED BLK                 NEW GARDEN TOWN LHR  '
p428
aS'D AHMED BLOCK N GARDEN    TOWN LAHORE          '
p429
aS'H NO D AHMAD BLOCK        NEW GARDEN TOWN LHR  '
p430
aS'H NO  AHMED BLOCK          NEW GARDEN TOWN LHR  '
p431
aS'H NO A AHMED BLOCK NEW    GARDEN TOWN LHR      '
p432
aS'H NO A AHMED BLOCK NEW    GARDEN TOWN LHR      '
p433
aS'C AHMED BLOCK             GARDEN TOWN LHR      '
p434
aS'C AHMED BLOCK             NEW GARDEN TOWN LHR  '
p435
aS'AHMED BLOCK GARDEN TOWN   LHR                  '
p436
aS'AHMED BLK NEW G TOWN      LHR                  '
p437
aS'AHMED BLOCK               NEW GARDEN TOWN LHR  '
p438
aS'AHMED BLK N GARDEN TWN    LHR                  '
p439
aS'AHMAD BL GARDEN TOWN      LHR                  '
p440
aS'AHMAD BLK N GARDEN TOWN   LHR                  '
p441
aS'AHMAD BL GARDEN TOWN      LHR                  '
p442
aS'B AHMAD BLOCK             NEW GARDEN TOWN LHR  '
p443
aS'AHMAD BL N GARDEN TOWN    LHR                  '
p444
aS'AHMED BLOCK               NEW GARDEN TOWNLHR  '
p445
aS'AHMED BLK                 NEW GARDEN TOWN LHR  '
p446
aS'AHMED BLOCK               NEW GARDEN TOWN LHR  '
p447
aS'A AHMED BLK N G TOWN LHR                       '
p448
aS'AHMED BLOCK               GARDEN TOWN LHR      '
p449
aS'B AHMAD BLK                LHR                  '
p450
aS'B AHMAD BL NEW GARDT      LHR                  '
p451
aS'AHMAD BLK                 LHR                  '
p452
aS'P NO  AHMAD BLK GTOWN     LHR                  '
p453
aS'AHMAD BLK N GARDEN TOWN   LHR                  '
p454
aS'A AHMED BLOCK GARDEN TOWN LHR                  '
p455
aS'AHMAD BL NEW GARDEN T     LHR                  '
p456
aS'AHMED BLOCK GARDEN TOWN   LHR                  '
p457
aS'M AHMED BLOCK N G TOWN LHR                     '
p458
aS'AHMED BLOCK               NEW GARDEN TOWN LHR  '
p459
aS'AHMAD BLOCK NGTOWN LHR                       '
p460
aS'AHMAD BLOCK NGARDEN TOWN LHR                  '
p461
aS'AHMED BLK NGTOWN        LAHORE               '
p462
aS'AHMED BLK GARDEN TOWN     LHR                  '
p463
aS'AHMED PARK NEW G TWN      LHR                  '
p464
aS'AHMAD PARK                LAHORE               '
p465
aS'A AHMED BLOCK             NEW GARDEN TOWN LHR  '
p466
aS'AHMED BLOCK NEW G TOWN    LHR                  '
p467
aS'AHMED BLK NGTOWN        LHR                  '
p468
aS'A AHMED BLOCK             NEW GARDEN TOWN LHR  '
p469
aS'A AHMED BLOCK             NEW GARDEN TOWN LHR  '
p470
aS'A AHMAD BLOCK             NEW GARDEN TOWN LHR  '
p471
aS'A AHMAD BLOCK             NEW GARDEN TOWN LHR  '
p472
aS'AHMAD BL N G TOWN         LHR                  '
p473
aS'A AHMED BLOCK             NEW GARDEN TOWN LHR  '
p474
aS'GARDEN TOWN                   LHR                  '
p475
aS'AHMED BLOCK GARDEN TOWN   LHR                  '
p476
aS'AHMED BLOCK GTOWN        LAHORE               '
p477
aS'AHMED BLK NGT             LHR                  '
p478
aS'AHMMAD BLOCK  TOWN       LHR                  '
p479
aS'A AHMAD BLK G TOWN         LHR                  '
p480
aS'AHMED BL GARDEN TOWN      LHR                  '
p481
aS'H NO BLOCK N              GARDEN TOWN LHR      '
p482
aS'AHMAD BLOCK NEW GARDAN    TOWN LHR             '
p483
aS'BEHIND H NO A AHMED BLOCK NEW CAMPUS GARDEN TO '
p484
aS'AHMED BLCOK               LHR                  '
p485
aS'AHMED BLCOK               LHR                  '
p486
aS'AHMAD BLOCK N G T         LHR                  '
p487
aS'O M SABIR BUTT                 AHMAD BL G TOWN  '
p488
aS'B AHMAD BLK N G TOWN      LHR                  '
p489
aS'C AHMED BLOCK             NEW GARDEN TOWN LHR  '
p490
aS'C AHMAD BLOCK             NEW GARDEN TOWN LHR  '
p491
aS'H NO A AHMAD BLOCK        NEW GARDEN TOWN LHR  '
p492
aS'AHMAD BLK N G TOWN        LHR                  '
p493
aS'AHMAD BLOCK               NEW GARDEN TOWN LHR  '
p494
aS'A AHMAD BLOCK             NEW GARDEN TOWN LHR  '
p495
aS'AHMAD BLOCK GTOWN                             '
p496
aS'AHMAD BLOCK               NEW GARDEN TOWN LHR  '
p497
aS'AHMAD BLOCK               NEW GARDEN TOWN LHR  '
p498
aS'AHMAD BLOCK               NEW GARDEN TOWN LHR  '
p499
aS'H NO  AHMAD BLK            NEW GARDEN TOWN LHR  '
p500
aS'AHMAD BLOCK GARDEN TOWN       LHR                  '
p501
ag501
aS'AHMAD B LOCK              NEW GARDEN TOWN LHR  '
p502
aS'AHMMAD PARK               GARDAN TOWN          '
p503
aS'AHMED BLK                 GARDEN TOWN LHR      '
p504
aS'B AHMAD BLK GARDEN TOWN   LHR                  '
p505
aS'AHMED BLK N G TOWN        LHR                  '
p506
aS'B AHMED BLOCK             NEW GARDEN TOWN LHR  '
p507
aS'AHMAD B                   LHR                  '
p508
aS'A AHMED BLOCK             GARDE TOWN LHR       '
p509
aS'A AHMED BLK NEW GARDEN TOWLHR                  '
p510
aS'A AHMED BLOCK             NEW GARDEN TOWN LHR  '
p511
aS'AHMED BLOCK GARDEN TOWN   LHR                  '
p512
aS'AHMED PARK                LHR                  '
p513
aS'H NO A AHMAD BLOCK        NEW CAMPUS GARDEN TO '
p514
aS'AHMAD PARK N G TOWN       LHR                  '
p515
aS'AHMED PARK                LHR                  '
p516
aS'A AHMAD BLN GARDEN TOWN   LHR                  '
p517
aS'A AHMED BLOCK              NEW GARDEN TOWN LHR  '
p518
aS'H NO  AHMED BLOCK           NEW GARDEN TOWN LHR  '
p519
aS'AHMED BLOCK                NEW GARDEN TOWN LHR  '
p520
aS'AHMAD PARK                 NEW GARDEN TOWN LHR  '
p521
aS'AHMAD BL NEW GARDEN TOWN  LHR                  '
p522
aS'AHMMAD BLOCK G TOWN       LHR                  '
p523
aS'H NO  AHMED BLOCK          GARDEN TOWN LHR      '
p524
aS'H NO  AHMED BLOCK NEW      GARDEN TOWN LHR      '
p525
aS'A AHMAD BLOCK              LHR                  '
p526
aS'A AHMAD BLOCK             NEW GTOWN           '
p527
aS'NEAR  AHMED BLOCK          NEW GARDEN TOWN LHR  '
p528
aS'H  AHMAD PARAK             LHR                  '
p529
aS'AHMED BLOCK G TOWN        LHR                  '
p530
aS'B AHMED BLOCK             NEW GARDEN TOWN LHR  '
p531
aS'B AHMAD BLOCK             NEW GARDEN TOWN LHR  '
p532
aS'MASJID A AHMAD PARK         LHR                  '
p533
aS'A AHMAD BLK GARDEN TOWN    LHR                  '
p534
aS'S  H  AHMAD PARK           LHR                  '
p535
aS'S  H  AHMAD PARK           LHR                  '
p536
aS'A AHMED BL G TOWN         LHR                  '
p537
aS'S  H  AHMAD PARK           LHR                  '
p538
aS'Q P  AHMAD BLK G TOWN     LHR                  '
p539
aS'AHMAD BLK GARDEN TOWN     LHR                  '
p540
aS'AHMAD BLK GARDEN TOWN     LHR                  '
p541
aS'AHMED BLK N G TOWN        LHR                  '
p542
aS'AHMED BLOCK            NEW GARDEN TOWN LHR  '
p543
aS'H NO  AHMED BLOCK          NEW GARDEN TOWN LHR  '
p544
aS'AHMED BLOCK               NEW GARDEN TOWN LHR  '
p545
aS'AHMAD PARK S D O H          LHR                  '
p546
aS'A AHMAD BLOCK             GARDEN TOWN LHR      '
p547
aS'A AHMED BLOCK             NEW GARDEN TOWN LHR  '
p548
aS'A AHMED BLK N G TOWN      LHR                  '
p549
aS'A AHMED BLK NGTOWN      LAHORE               '
p550
aS'AHMAD BLK NEW G TOWN      LHR                  '
p551
aS'AHMED BLOCK N G TOWN      LHR                  '
p552
aS'AHMAD BLOCK               NEW GARDEN TOWN LHR  '
p553
aS'A AHMED BLK NGTOWN      LAHORE               '
p554
aS'AHMAD BLK N GARDEN TOWN   LHR                  '
p555
aS'AHMED BLK NGTOWN        LHR                  '
p556
aS'AHMED BLOCK               NEW GARDNE TOWN LHR  '
p557
aS'A AHMED BLK N G TOWN      LHR                  '
p558
aS'A AHMAD BLOCK             NEG GARDEN TOWN LHR  '
p559
aS'AHMED BLK NGTOWN        LHR                  '
p560
aS'AHMAD BL NEW GARDEN TOWN  LAHORE               '
p561
aS'B AHMED PARK N G TOWN       LHR                  '
p562
aS'B AHMED BLOCK              NEW GARDEN TOWN LHR  '
p563
aS'A AHMED BLK GARDEN TOWN    LHR                  '
p564
aS'A AHMAD BLOCK N G TOWN     LHR                  '
p565
aS'H NO  A AHMED BLOCK         GARDEN TOWN LHR      '
p566
aS'C AHMAD BL NO G TOWN       LHR                  '
p567
aS'A AHMED BL N G TOWN        LHR                  '
p568
aS'A AHMED BLK                GARDEN TOWN LHR      '
p569
aS'A AHMMADBLOCK            CARDAN               '
p570
aS'AAHMEDBLOCK              GARDEN TOWN          '
p571
aS'A AHMED BLOCK              NEW GARDEN TOWN LHR  '
p572
aS'C GARDEN TOWN AHMAD      BLOCK  NEW G  TOWN  '
p573
aS'A AHMAD PARK GARDANTOWN     LHR                  '
p574
aS'AHMAD BLOCK                LHR                  '
p575
aS'C AHMAD BLK                 LHR                  '
p576
aS'A AHMED BLK N GARDEN TOWN  LHR                  '
p577
aS'A AHMED BLOCK              NEW GARDEN TOWN LHR  '
p578
aS'AHMED BLK N G TOWN         LHR                  '
p579
aS'A AHMED BLK NGTOWN       LHR                  '
p580
aS'AHMED BLK NGTOWN         LHR                  '
p581
aS'AHMAD BLK N G TOWN         LHR                  '
p582
aS'H NO  AHMAD BLOCK           GARDEN TOWN LHR      '
p583
aS'AHMAD BLK N G TOWN         LHR                  '
p584
aS'B AHMED BLK N G TOWN       LHR                  '
p585
aS'AHMAD BL GARDEN TOWN       LAHORE               '
p586
aS'AHMAD BL GARDEN TOWN       LAHORE               '
p587
aS'AHMAD BLOCK GARDEN TOWN   LHR                  '
p588
aS'AHMAD BLOCK GARDEN TOWN   LHR                  '
p589
aS'A AHMAD BLK GTOWN         LHR                  '
p590
aS'A AHMED BLOCK              GARDEN TOWN LHR      '
p591
aS'AHMAD BL NEW GTOWN        LHR                  '
p592
aS'AHMAD PARK                LHR                  '
p593
aS'A AHMAD BLOCK              NEW GARDEN TOWN LHR  '
p594
aS'A AHMED BLOCK              NEW GARDEN TOWN LHR  '
p595
aS'A AHMAD BLOCK N G T        LHR                  '
p596
aS'AHMED BL GARDEN TOWN LHR                  '
p597
aS'AHMED BLOCK NEW GARDEN TOWNLHR                  '
p598
aS'B AHMED BLK N G TONW       LHR                  '
p599
aS'B N G TOWN                  LHR                  '
p600
aS'B AHMED BLOCK              NEW GARDEN TOWN LHR  '
p601
aS'HB NGT                      LHR                  '
p602
aS'A AHMED BLOCK              NEW GARDEN TOWN LHR  '
p603
aS'A AHMED BLK NG TOWN        LHR                  '
p604
aS'AHMAD PARK G TOWN          LHR                  '
p605
aS'A AHMAD BLOCK              NEW GARDEN TOWN LHR  '
p606
aS'AI AHMED BLOCK           NEW GARDEN TOWN LHR  '
p607
aS'A AHMAD BLOCK GARDEN TOWN LHR                  '
p608
aS'AHMED BLOCK GARDEN TOWN   LHR                  '
p609
aS'AHMED BLOCK             NEW GARDEN TOWN LHR  '
p610
aS'H NO  AHMED PARK           LAHORE               '
p611
aS'A AHMAD BLOCK             NEW GARDEN TOWN LHR  '
p612
aS'D AHMED BLK NEW G TOWN     LHR                  '
p613
aS'D AHMED BLOCK UPPER STORY  NEW GARDEN TOWN LHR  '
p614
aS'D AHMAD BLOCK GARDAN TOWN  LHR                  '
p615
aS'AHMAD PARK ICHHRA         LHR                  '
p616
aS'A AHMED BLK N GARDEN TWN  LHR                  '
p617
aS'AHMAD BL NEW GARDEN TOWN  LHR                  '
p618
aS'AHMAD BLOCK N GARDEN TOWN LHR                  '
p619
aS'AHMMAD BLOCK G TOWN       LHR                  '
p620
aS'AHMED BLK                 GARDEN TOWN LHR      '
p621
aS'H NO  AHMED BLOCK GARDEN TOWN LHR               '
p622
aS'AHMED BLOCK               NEW GARDEN TOWN U P '
p623
aS'AHMED BLOCK               NEW GARDEN TOWN U P '
p624
aS'AHMED BLOCK UPPER PORTION NEW GARDEN TOWN LHR  '
p625
aS'AHMAD PARK                LHR                  '
p626
aS'AHMAD BLOCK               NEW GARDEN TOWN LHR  '
p627
aS'A AHMAD BL GARDEN TOWN     LHR                  '
p628
aS'AHMED BLOCK NEW GARDEN    LHR                  '
p629
aS'AHMED BLOCK NEW           GARDEN TOWN LHR      '
p630
aS'AHMED BLOCK NEW           GARDEN TOWN LHR      '
p631
aS'AHMED BLOCK NEW           GARDEN TOWN LAHORE   '
p632
aS'AHMAD BLOCK NEW GRADEN TOWLHR                  '
p633
aS'A AHMAD BL GARDEN TOWN    LHR                  '
p634
aS'AHMAD BLOCK N G T         LHR                  '
p635
aS'AHMAD BLOCK               NEW GTOWN           '
p636
aS'AHMED BLOCK               GARDEN TOWN LHR      '
p637
aS'AHMED BLOCK NEW GARDEN TOWLHR                  '
p638
aS'GARDEN LIGHT AHMED BLK NGTOWL                    '
p639
aS'B AHMAD BLK               NEW GARDEN TOWN LHR  '
p640
aS'AHMAD BLOCK NEW GARDEN TOWLHR                  '
p641
aS'AHMAD BLOCK GARDEN TOWN   LHR                  '
p642
aS'AHMAD BLOCK               NEW GARDEN TOWN LHR  '
p643
aS'MASUDUL HAQ  A PARK        LHR                  '
p644
aS'AHMED PARK                LHR                  '
p645
aS'AHMED BLK                 GARDEN TOWN LHR      '
p646
aS'H NO AHMED BLOCK NEW      GARDEN TOWN LHR      '
p647
aS'AHMED BLK                 GARDEN TOWN LHR      '
p648
aS'AHMAD PARK G TOWN         LHR                  '
p649
aS'AHMAD BLOCK               NGARDEN TOWN LHR    '
p650
aS'A AHMAD PARK N G TOWN     LHR                  '
p651
aS'AHMAD BLOCKGARDAN TOWN    LHR                  '
p652
aS'A AHMAD BLOCK             NEW GARDEN TOWN LHR  '
p653
aS'H AHMED BLOCK NEW GARDEN  TOWN LHR             '
p654
aS'AHMED BLOCK               NEW GARDEN TOWN LHR  '
p655
aS'AHMAD PARK                LHR                  '
p656
aS'A AHMAD PARK              LHR                  '
p657
aS'BAHMED BLOCK GARDEN TOWN LHR                  '
p658
aS'AHMED PARK                LHR                  '
p659
aS'AHMED BLK GARDEN TOWN     LHR                  '
p660
aS'AHMAD PARK                LAHORE               '
p661
aS'PLOT NO  A                 AHMAD BLK N GARDEN T '
p662
aS'AHMAD PARK                    LHR                  '
p663
aS'A AHMAD PRK FP RD          GULBG LHR            '
p664
aS'B AHMED BL G TOWN         LHR                  '
p665
aS'B AHMED BLOCK             NEW GARDEN TOWN LHR  '
p666
aS'A AHMED BLOCK             NEW GARDEN TOWN LHR  '
p667
aS'A AHMAD BLOCK GARDEN TOWN LHR                  '
p668
aS'A AHMAD BLOCK             NEW GTOWN           '
p669
aS'A  AHMAD BLOCK            NEW GTOWN           '
p670
aS'AHMAD BLK GARDEN TOWN     LHR                  '
p671
aS'AHMED BLK G TOWN          LHR                  '
p672
aS'AHMAD PARK GARDAN TOWN    LHR                  '
p673
aS'H NO  AHMED BLOCK          NEW GARDEN TOWN LHR  '
p674
aS'AHMMAD BLK GARDON TOWN    LHR                  '
p675
aS'AHMAD BLK GARDEN TOWN     LHR                  '
p676
aS'AHMED BLOCK               NEW GARDEN TOWN LHR  '
p677
aS'AHMAD BLOCK               NEW GARDEN TOWN      '
p678
aS'AHMED BLOCK               LHR                  '
p679
aS'AHMED BLOCK               NEW GARDEN TOWN LHR  '
p680
aS'P NO A AHMED BLK          NEW GARDEN TOWN LHR  '
p681
aS'A AHMAD BLOCK GARDEN TOWN LHR                  '
p682
aS'AHMAD BL GARDEN TOWN      LAHORE               '
p683
aS'AHMAD BLK GARDEN TOWN     LHR                  '
p684
aS'AHMEDBLOCKGTOWN        LHR                  '
p685
aS'A AHMED BL GARDEN TOWN    LHR                  '
p686
aS'AHMED BLOCK N G TOWN      LHR                  '
p687
aS'AHMED BLOCK N G TOWN      LHR                  '
p688
aS'AHMAD BLOCK N GARDEN TOWN LHR                  '
p689
aS'AHMED BLOCK               NEW GARDEN TOWN LHR  '
p690
aS'AHMED BLOCK GARDEN TOWN   LHR                  '
p691
aS'A AHMED BLOCK             NEW GARDEN TOWN LHR  '
p692
aS'B A BLK G TOWN             LHR                  '
p693
aS'A AHMAD B G TOWN          LHR                  '
p694
aS'A AHMED BLOCK             GARDEN TOWN LHR      '
p695
aS'AHMAD PARK                LAHORE               '
p696
aS'A ANNEX AHMED BL GARDEN TOLHR                  '
p697
aS'A AHMED BLOCK NEW         GARDEN TOWN LHR      '
p698
aS'A BLOCK G TOWN            LHR                  '
p699
aS'C AHMAD BLK G TOWN        LHR                  '
p700
aS'AHMAD PARK GARDEN TOWN    LHR                  '
p701
aS'AHMED BLOCK               GARDEN TOWN LHR      '
p702
aS'B AHMAD BL NEW GARDEN TOWNLHR                  '
p703
aS'HNOA AHMED BLOCK NEW    GARDEN TOWN LHR      '
p704
aS'AHMED PARK                LHR                  '
p705
aS'A AHMED BLK N G TOWN      LHR                  '
p706
aS'AHMED BLK N G TOWN        LHR                  '
p707
aS'AHMED BLOCK               NEW GARDEN TOWN LHR  '
p708
aS'A AHMED BLOCK             NEW GARDEN TOWN LHR  '
p709
aS'AHMAD PARK M TOWN         LHR                  '
p710
aS'AHMMAD BLOCK G TOWN       LHR                  '
p711
aS'AHMMAD PARK GARDAN TWON   LHR                  '
p712
aS'AHMAD BLOCK               NEW GTOWN           '
p713
aS'AHMAD PARK                LHR                  '
p714
aS'AHMED BLOCK               NEW GARDEN TOWN LHR  '
p715
aS'AHMED BLOCK               NEW GARDEN TOWN LHR  '
p716
aS'AHMED BLOCK               NEW GARDEN TOWN LHR  '
p717
aS'AHMAD BL GARDEN TOWN      LAHORE               '
p718
aS'AHMAD PARK G TOWN         LHR                  '
p719
aS'AHMED BLK N G TOWN        LHR                  '
p720
aS'A AHMAD BLK N G TOWN      LHR                  '
p721
aS'M CIVIC CENTRE              MODEL TOWN EXT LHR   '
p722
aS'M CIVIC CENTRE              MODEL TOWN EXT  LHR  '
p723
aS'H NO A AHMAD BLOCK      GARDEN TOWN          '
p724
aS'AHMADBLOCKGARDENTOWN   LHR                  '
p725
aS'AHMED BLOCK NEW GARDEN    TOWN LHR             '
p726
aS'AHMEDBLOCK               NGTOWN             '
p727
aS'AHMED BLK                 NEW GARDEN TOWN LHR  '
p728
aS'AHMAD B GARDAN TWN        LHR                  '
p729
aS'AI AHMED BLK NGTOWN    LHR                  '
p730
aS'A AHMAD BLOCK             NEW GARDEN TOWN      '
p731
aS'A AHMED BLK N G TOWN      LHR                  '
p732
aS'AI AHMAD BL N G TOWN      LHR                  '
p733
aS'A AHMAD BLOCK NGTOWN    LHR                  '
p734
aS'AHMAD BLOCK N G T         LHR                  '
p735
aS'AHMAD BLOCK               NEW GARDEN TOWN LHR  '
p736
aS'AHMED BL GARDEN TOWN      LHR                  '
p737
aS'AHMAD BLOCK GTOWN        LHR                  '
p738
aS'AHMAD BL NEW GARDEN TWON  LHR                  '
p739
aS'B AHMAD BLOCK             NEW GARDEN TOWN LHR  '
p740
aS'A AHMED BLOCK             NEW GARDEN TOWN LHR  '
p741
aS'AHMED BLOCK NEW GARDEN    TOWN LHR             '
p742
aS'AHMED BL GARDEN TOWN      LHR                  '
p743
aS'A AHMED BLK GARDEN TOWN   LHR                  '
p744
aS'A AHMED BLOCK             NEW GARDEN TOWN LHR  '
p745
aS'H  AHMAD B G TOWN          LHR                  '
p746
aS'AHMED BLK G TOWN          LHR                  '
p747
aS'AHMED BLOCK               NEW GARDEN TOWN LHR  '
p748
aS'AHMED BLK                 GARDEN TOWN LHR      '
p749
aS'A AHMAD BLOCK N G TOWN    LHR                  '
p750
aS'A AHMED BLOCK             NEW GARDEN TOWN LHR  '
p751
aS'A AHMED BLK GTOWN        LHR                  '
p752
aS'AHMED BLK                 GARDEN TOWN LHR      '
p753
aS'B AHMAD BL N G TOWN       LHR                  '
p754
aS'AHMAD BL NEW G TOWN       LHR                  '
p755
aS'C AHMAD BLOCK             NEW GARDEN TOWN LHR  '
p756
aS'A AHMAD BLOCK NGARDEN TOWNLHR                  '
p757
aS'A AHMED BLOCK             GARDEN TOWN LHR      '
p758
aS'B AHMED BLOCK NEW G TOWN  LHR                  '
p759
aS'B AHMED BLOCK NEW G TOWN  LHR                  '
p760
aS'AHMED PARK                LHR                  '
p761
aS'AHMAD BLOCK               NEW GARDEN TOWN LHR  '
p762
aS'AHMAD BLOCK               NEW GARDEN TOWN LHR  '
p763
aS'AHMED BLOCK               NEW GARDEN TOWN LHR  '
p764
aS'AHMED PARK                LHR                  '
p765
aS'AHMED BLOCK N GARDEN TOWN LHR                  '
p766
aS'A AHMAD BLOCK             NEW GARDEN TOWN LHR  '
p767
aS'A AHMAD BLOCK             NEW GARDEN TOWN LHR  '
p768
aS'AHMED BLOCK               NEW GARDEN TOWN LHR  '
p769
aS'C AHMED BLOCK             N GARDEN TOWN LHR    '
p770
aS'A AHMED BLCK              NEW GARDEN TOWN LHR  '
p771
aS'AHMAD BLOCK NEW GARDEN TOWLHR                  '
p772
aS'AHMED BLOCK N G TOWN      LHR                  '
p773
aS'AHMMADBLOCK              GTOWN               '
p774
aS'A AHMED BLK NGTOWN      LHR                  '
p775
aS'C AHMED BLK               GARDEN TOWN LHR      '
p776
aS'HNO AHMED BLOCK          NEW GARDEN TOWN LHR  '
p777
aS'AHMED BLOCK               NEW GARDEN TOWN LHR  '
p778
aS'AHMED BLOCK               NEW GARDEN TOWN LHR  '
p779
aS'AAHMED BLOCK              LHR                  '
p780
aS'A AHMED BLOCK N G TOWN    LHR                  '
p781
aS'AHMAD BLK G TOWN          LHR                  '
p782
aS'A AHMED BLK GARDEN TOWN   LHR                  '
p783
aS'AHMED BLK N GARDEN TOWN   LHR                  '
p784
aS'AHMAD BLOCK GARDEN TOWN   LHR                  '
p785
aS'B AHMED BLK NGTOWN      LHR                  '
p786
aS'B AHMAD BLOCK N G TOWN    LHR                  '
p787
aS'AHMED BLK NEW GARDEN TOWN LHR                  '
p788
aS'GARDEN BLOCK G TOWN       LHR                  '
p789
aS'AHMAD B G TOWN             LHR                  '
p790
aS'A AHMED BLOCK              GARDEN TOWN LHR      '
p791
aS'A AHMED BLOCK             NEW GARDEN TOWN LHR  '
p792
aS'A AHMAD BLK                NEW GARDEN TOWN LHR  '
p793
aS'AHMED BLK NGTOWN         LAHORE               '
p794
aS'A AHMAD BLOCK              NEW GTOWN           '
p795
aS'A AHMAD BLOCK              NEW GTOWN           '
p796
aS'A AHMED BL GARDEN TOWN    LHR                  '
p797
aS'A AHMED BL N GARDEN TOWN  LHR                  '
p798
aS'AHMAD BL                  LHR                  '
p799
aS'A AHMED BLK N G TOWN      LHR                  '
p800
aS'AHMEDPARK                 GARDEN TOWN          '
p801
aS'AHMMAD PARK  TOWN         LHR                  '
p802
aS'AHMAD BLK NEW GARDEN TOWN  LHR                  '
p803
aS'AHMAD BLOCK NEW GARDEN TOWN                     '
p804
aS'H NO AHMED BLOCK NEW GARDENTOWN LHR             '
p805
aS'AHMED BLOCK                GARDEN TOWN LHR      '
p806
aS'H NO AHMED BLK             NEW GARDEN TOWN LHR  '
p807
aS'A AHMAD BLOCK              NEW GARDEN TOWN LHR  '
p808
aS'AHMAD BLOCK NG TOWN      LHR                  '
p809
aS'AHMAD BLOCK                GARDEN TOWN LHR      '
p810
aS'B AHMAD BLOCK              NEW GARDEN TOWN LHR  '
p811
aS'C AHMAD BLOCK              NEW GARDEN TOWN LHR  '
p812
aS'AHMAD BLK N G TOWN        LHR                  '
p813
aS'AHMMAD BLOCK G TOWN       LHR                  '
p814
aS'H NO A AHMED BLOCK        NEW GARDEN TOWN LHR  '
p815
aS'UPPER PORTIONH NO A     AHMED BLOCK NEW GARD '
p816
aS'AHMAD BLOCK NEW GARDEN TOWLAHORE               '
p817
aS'AHMED BLOCK               LHR                  '
p818
aS'AAHMED BLOCK             LHR                  '
p819
aS'AHMED BLOCK               LHR                  '
p820
aS'AHMED PR                  LHR                  '
p821
aS'AHMAD BLOCK               NEW GARDEN TOWN LHR  '
p822
aS'AHMAD BLOCK               NEW GARDEN TOWN LHR  '
p823
aS'QADEER KHAN  AHMED BLOCK  NEW GARDEN TOWN LAH '
p824
aS'AHMED BLOCK               N GARDEN TOWN LHR    '
p825
aS'H NO  AHMED BLOCK          GARDEN TOWN LHR      '
p826
aS'AHMAD PARK MUSIM TOWN     LHR                  '
p827
aS'AHMAD BLOCK NEW G TOWN    LHR                  '
p828
aS'AHMED BLK                 NEW GARDEN TOWN LHR  '
p829
aS'AHMED BLK GARDEN TOWN     LHR                  '
p830
aS'B AHMED BLOCK             NEW GARDEN TOWN LHR  '
p831
aS'AHMED BLK N G TOWN        LHR                  '
p832
aS'A AHMED BLOCK NEW GARDEN  TOWN LAHORE          '
p833
aS'AHMAD BLOCK               NEW GARDEN TOWN LHR  '
p834
aS'AHMAD BLOCK NEW           GARDEN TOWN LHR      '
p835
aS'G BLK G TONW              LHR                  '
p836
aS'GARDEN BLOCK              NEW GARDEN TOWN LHR  '
p837
aS'GARDEN BLK GARDEN TOWN    LHR                  '
p838
aS'GARDEN BLOCK              NEW GARDEN TOWN LHR  '
p839
aS'GARDEN BLOCK              NEW GARDEN TOWN LHR  '
p840
aS'A GARDEN BLOCK NEW GARDEN TOWN LHR             '
p841
aS'GARDEN BLOCK GARDEN TOWN  LHR UPPER PORTION  '
p842
aS'A GARDEN BLK GARDEN TOWN  LHR UPPER PORTION  '
p843
aS'A AHMED BLOCK G TOWN      LHR                  '
p844
aS'AHMED BLK                 NEW GARDEN TOWN LHR  '
p845
aS'B AHMED BLOCK N G TOWN LHR                     '
p846
aS'H NO  AHMED BLK            NEW GARDEN TOWN LHR  '
p847
aS'AHMAD BLOCK NEW           GARDEN TOWN LHR      '
p848
aS'AHMED BLOCK               NEW GARDEN TOWN LHR  '
p849
aS'AHMAD BLOCK N GARDEN TOWN LHR                  '
p850
aS'AHMED BLOCK               NEW GARDEN TOWN LHR  '
p851
aS'A AHMED BLK GARDEN TOWN   LHR                  '
p852
aS'A AHMED PARKGTOWN       LHR                  '
p853
aS'A AHMAD BLOCK             NEW GARDEN TOWN LHR  '
p854
aS'AHMAD BLOCK NEW GARDEN TOLHR                  '
p855
aS'AHMAD BLOCK NEW GARDEN TOWNLHR                  '
p856
aS'A AHMED BLK G TOWN        LHR                  '
p857
aS'B AHMAD BLK GARDEN TOWN   LHR                  '
p858
aS'B AHMAD PRK N G TOWN      LHR                  '
p859
aS'AHMED BLOCK NGTOWN      LHR                  '
p860
aS'A AHMED BLOCK             NGTOWN LHR         '
p861
aS'AHMED BLOCK               NGTOWN LHR         '
p862
aS'AHMAD BLOCK GARDEN TOWN   LHR                  '
p863
aS'AHMAD BLOCK               NEW GARDEN TOWN LHR  '
p864
aS'AHMED BLOCK               NEW GARDEN TOWN LAHO '
p865
aS'C AHMAD BL NEW GARDEN TOWNLHR                  '
p866
aS'C AHMAD BLOCK NEW          GARDEN TOWN LHR      '
p867
aS'C AHMAD BLOCK NEW GARDEN  TOWN LHR             '
p868
aS'A AHMED BLOCK NEW GARDEN TLHR                  '
p869
aS'AAHMAD BLK NEW GTOWN    LHR                  '
p870
aS'A AHMED BLK GARDEN TOWN   LHR                  '
p871
aS'AHMED BLK N G TOWN        LHR                  '
p872
aS'AHMED BLOCK               NEW GARDEN TOWN LHR  '
p873
aS'A AHMAD B GARDEN TOWN     LHR                  '
p874
aS'A AHMED BLOCK             NEW GARDEN TOWN LHR  '
p875
aS'AHMAD BL NEW GARDEN TOWN  LHR                  '
p876
aS'A AHMAD BLOCK             NEW GARDEN TOWN LHR  '
p877
aS'B AHMDA BLK               NEW GARDEN TOWN LHR  '
p878
aS'A AHMED BLOCK             NEW GARDEN TOWN LHR  '
p879
aS'A PORTION B AHMED BLOCK   NEW GARDEN TOWN LHR  '
p880
aS'AHMED BLOCK NEW GARDEN    TOWN LHR             '
p881
aS'HNO AHMED BLOCK GARDEN   TOWN LHR             '
p882
aS'AHMED BLOCK               NEW GARDEN TOWN LHR  '
p883
aS'B AHMED BLK NGTOWM      LHR                  '
p884
aS'MAIN GATE STADIUM             LHR                  '
p885
aS'NURSARY NEAR MIAN GATE STADIUMLHR                  '
p886
aS'NURSARY NR PETROL PUMP        LHR                  '
p887
aS'FEROZPUR RD NR PETROLPUMP     LHR                  '
p888
aS'FEROZEPUR RD PETROL PUMP   LHR                  '
p889
aS'B GARDEN TOWN GARDEN BLK   LHR                  '
p890
aS'H NO  KACHI ABADI GARDEN  BLOCK NEW GARDEN TOW '
p891
aS'GARDEN BLOCK GARDEN TOWN NEAR FEROZ PUR ROAD LHR   '
p892
aS'HALI ST NEW ABADI NEW         GARDEN TOWN LAHORE   '
p893
aS'KHASRA NO  HALI    STREET JEWAN HANA G '
p894
aS'GARDEN BLOCK             NEW GARDEN TOWN LHR  '
p895
aS'H NO  GARDEN BLOCK          NEW GARDEN TOWN LHR  '
p896
aS'A GARDEN BLOCK             NEW GARDEN TOWN LHR  '
p897
aS'A GARDEN BLOCK             NEW GARDEN TOWN LHR  '
p898
aS'AHMAD PARK NAI ABDI           LHR                  '
p899
aS'KACHI ABADI NEW GARDEN TOWN   LHR                  '
p900
aS'H NO  GARDEN BLOCK       NEW GARDEN TOWN LHR  '
p901
aS'H NO  AHMED BLK          KACHI ABADI GARDEN T '
p902
aS'GARDEN BLOCK            HALI STREET NEW GTO '
p903
aS'KACHI ABADI JEVAN HANA        GARDEN TOWN          '
p904
aS'H NO  SN  KACHI ABADI      AHMAD BLOCK NGTOWN '
p905
aS'H NO  ST NO JEVAN   HANA NEW GARDEN TOWN '
p906
aS'H  GARDEN BLOCK           GARDEN TOWN LHR      '
p907
aS'GARDEN BLOCK HALI STREET NEW GARDEN TOWN LHR  '
p908
aS'KACHI ABADI GTOWN                                 '
p909
aS'KACHI ABADI GTOWN                            '
p910
aS'NAI ABADI AHMAD PARK          LHR                  '
p911
aS'H NO  KACHI ABADI G FLOORGARDEN BLOCK G TOWN  '
p912
aS'H NO  K ABADI GARDEN BLK UPPER PORTION GARDEN '
p913
aS'NEW ABADI AHMAD PARK          JEVAN HANA  NEW GARD '
p914
aS'HALI ST AHMED BLK N G TOWN    LHR                  '
p915
aS'KACHI ABADI GARDEN BLOCKNEW GARDEN TOWN LHR  '
p916
aS'KACHI ABADI GARDN BLOCK NEW GARDEN TOWN LHR  '
p917
aS'NAI ABADI AHMED PARK          LHR                  '
p918
aS'GARDEN BLOCK               NEW GARDEN TOWN LHR  '
p919
aS'H NO  ST NO  HALI ROAD     NE GARDEN TOWN LHR   '
p920
aS'GARDEN BLOCK GARDEN TOWN   LAHORE               '
p921
aS'GARDEN BLOCK GARDEN        TOWN LAHORE          '
p922
aS'GARDEN BLK                LHR                  '
p923
aS'GARDEN BLOCK GARDEN TOWN  LHR                  '
p924
aS'GARDEN BLOCK              GARDEN TOWN LHR      '
p925
aS'H GARDEN BLOCK GTOWN     LAHORE               '
p926
aS'GBLK GTOWN              LHR                  '
p927
aS'GARDEN BLOCK NEW GARDEN TOL                    '
p928
aS'G ARDEBL NE G TOWN        LHR                  '
p929
aS'GARDEN TOWN               LHR                  '
p930
aS'GARDEN TOWN               LHR                  '
p931
aS'GARDEN BLOCK GARDEN TOWN  LHR                  '
p932
aS'SERVANT QTR A GARDEN BLOCKNEW GARDEN TOWN LHR  '
p933
aS'A GARDEN TOWN              LHR                  '
p934
aS'B GARDEN BLOCK            GARDEN TOWN LHR      '
p935
aS'GARDEN TOWN                LHR                  '
p936
aS'P NO A GARDEN BLK         NEW GARDEN TOWN LHR  '
p937
aS'H GARDEN TOWN               LAHORE               '
p938
aS'A GARDEN BLK NGTOWN     LHR                  '
p939
aS'A GARDEN BLOCK            NEW GARDEN TOWN LHR  '
p940
aS'A GARDEN BLOCK            NEW GARDEN TOWN LHR  '
p941
aS'G BLK G TOWN               LHR                  '
p942
aS'B GARDEN TOWN              LHR                  '
p943
aS'GARDEN BLOCK NEW GARDEN   TOWN LHR             '
p944
ag475
aS'GARDEN TOWN               LHR                  '
p945
aS'GARDEN BLOCK              NEW GARDEN TOWN LHR  '
p946
aS'GARDEN TOWN BLK           GARDER TOWN LHR      '
p947
aS'GARDEN BLOCK              NEW GARDEN TOWN LHR  '
p948
aS'GARDEN TOWN                LHR                  '
p949
aS'GARDEN TOWN                LHR                  '
p950
aS'GARDEN TOWN                LHR                  '
p951
aS'GARDEN BLOCK              NEW GARDEN TOWN LHR  '
p952
aS'GARDEN BLOCK              NEW GARDEN TOWN LHR  '
p953
aS'B GARDEN BLOCK            GARDEN TOWN LHR      '
p954
aS'A GARDEN BLOCK            NEW GARDEN TOWN      '
p955
aS'GARDEN BLOCK              NEW GARDEN TOWN LHR  '
p956
aS'A GARDEN BLOCK            GARDEN TOWN LHR      '
p957
aS'AHMED BL NGTOWN     LAHORE               '
p958
aS'KACHI ABADI GTOWN                                 '
p959
aS'A G TOWN                  LHR                  '
p960
aS'BOYS PRIMARY SCHOOL           JEVAN HANA           '
p961
aS'JIWAN HANA GARDEN BLOCK       GARDEN TOWN LHR      '
p962
aS'GARDEN BLOCK NEW GARDEN   TOWN LHR             '
p963
aS'GARDEN BLK GTOWN         LHR                  '
p964
aS'A GARDEN BLK GARDEN TOWN  LHR                  '
p965
aS'GARDEN BLOCK NGT          LHR                  '
p966
aS'H NO  GARDEN BLOCK         NEW GARDEN TOWN LHR  '
p967
aS'GARDEN BLOCK N G TOWN     LHR                  '
p968
aS'BLOC GERDEN GERDEN TOWN    LHR                  '
p969
aS'GARDEN BL NEW GR TOWN      LHR                  '
p970
aS'A GARDEN BL NEW GARDEN TOWLHR                  '
p971
aS'GARDEN TOWN                LHR                  '
p972
aS'GARDEN BLOCK GARDEN TOWN   LHR                  '
p973
aS'GARDEN TOWN                LHR                  '
p974
aS'GARDEN TOWN BLOCK          NEW GARDEN TOWN LHR  '
p975
aS'GARDEN BLK                 GARDEN TOWN LHR      '
p976
aS'H  GARDEN TOWN              LHR                  '
p977
aS'G BLOCK NEW GARDEN TOWN   LHR                  '
p978
aS'G BLOCK NEW GARDEN TOWN   LHR                  '
p979
aS'GARDEN BLOCK              NEW GARDEN TOWN LHR  '
p980
aS'A GARDEN BLOCK             NEW GARDEN TOWN LHR  '
p981
aS'GARDEN BLK                 NEW GARDEN TOWN LHR  '
p982
aS'A GARDEN BLK NGTOWN       LHR                  '
p983
aS'A GARDEN BLK NGTOWN       LHR                  '
p984
aS'A GARDEN BLK               NEW GARDEN TOWN LHR  '
p985
aS'A GARDEN BLOCK             NEW GARDEN TOWN LHR  '
p986
aS'GARDEN BLOCK               GARDEN TOWN  LHR     '
p987
aS'GARDEN BLOCK               NEW GARDEN TOWN LHR  '
p988
aS'GARDEN BLOCK               NEW GARDEN TOWN LHR  '
p989
aS'GARDEN BLOCK GARDEN TOWN   LHR                  '
p990
aS'GARDEN BLOCK               NEW GARDEN TOWN LHR  '
p991
aS'A GARDEN TOWN BLOCK N      GARDEN TOWN LHR      '
p992
aS'GARDEN BLK NGTOWN        LHR                  '
p993
aS'A GARDEN BLK N G TOWN      LHR                  '
p994
aS'A GARDEN BLK NGTOWN      LHR                  '
p995
aS'GARDEN NEW G TOWN          LHR                  '
p996
aS'GARDEN TOWN BLK            GARDEN TOWN LHR      '
p997
aS'GARDEN BL GARDEN TOWN      LHR                  '
p998
aS'ST FLOOR  GARDEN BLOCK     GARDEN TOWN LHR      '
p999
aS'A GARDEN BLK N G TOWN      LHR                  '
p1000
aS'GARDEN BLK N G TOWN        LHR                  '
p1001
aS'A GARDEN BLK N G TOWN      LHR                  '
p1002
aS'GARDEN BLK N G TOWN        LHR                  '
p1003
aS'NEW GARDEN TOWN               LHR                  '
p1004
aS'GARDEN BLK NG TOWN        LHR                  '
p1005
aS'P NO  GARDEN BLK            NEW GARDEN TOWN LHR  '
p1006
aS'A GARDEN BLOCK             LHR                  '
p1007
aS'GARDEN BLOCK               NGTOWN LHR         '
p1008
aS'GARGEN BLOCK NEW GARDEN    TOWN LHR             '
p1009
aS'H NO A GARDEN BLOCK        GARDEN TOWN LHR      '
p1010
aS'B GARDEN BLOCK             GARDEN TOWN LHR      '
p1011
aS'GARDEN BLK GARDEN TOWN     LHR                  '
p1012
aS'GARDEN BLOCK               NEW GARDEN TOWN LHR  '
p1013
aS'A GARDEN BLOCK GARDEN TOWN LHR                  '
p1014
aS'GARDEN BLK NGTOWN        LHR                  '
p1015
aS'GARDEN BLK                 NEW GARDEN TOWN LHR  '
p1016
aS'B NEW GARDEN TOWN          LHR                  '
p1017
aS'GARDEN BLK                 NEW GARDEN TOWN LHR  '
p1018
aS'A NEW GARDEN TOWN           LHR                  '
p1019
aS'A GARDEN BL                LHR                  '
p1020
aS'GARDEN TOWN BLOCK          GARDEN TOWN LHR      '
p1021
aS'GARDEN BLOCK               NEW GARDEN TOWN LHR  '
p1022
aS'H NO  GARDEN BLOCK          NEW GARDEN TOWN LHR  '
p1023
aS'A GARDEN BLOCK             GARDEN TOWN LHR      '
p1024
aS'GARDEN BLOCK NGTOWN      LHR                  '
p1025
aS'BI GARDEN BLK NEW GARDEN   TOWN LHR             '
p1026
aS'HOUSE  GARDEN BLOCK         LHR                  '
p1027
aS'GARDEN BLOCK NGT           LHR                  '
p1028
aS'H NO  GARDEN BLOCK        NEW GTOWN           '
p1029
aS'GARDEN TOWN                FEROZE PUR ROAD LHR  '
p1030
aS'GARDEN BLOCK            NEW GARDEN TOWN LHR  '
p1031
aS'A GARDEN BLOCK             GARDEN TOWN LHR      '
p1032
aS'HNO G BLOCK NEW GARDEN TOWN LHR             '
p1033
aS'GARDEN BLK                 NGTOWN LHR         '
p1034
aS'A GARDEN BLOCK GARDEN TOWN LHR                  '
p1035
aS'H  GARDEN TOWN F P RD       LHR                  '
p1036
aS'GARDEN BL GARDEN TOWN      LHR                  '
p1037
aS'GARDEN TOWN                LHR                  '
p1038
aS'H NO  GARDEN TOWN                              '
p1039
aS'GARDEN BLOCK GARDEN TOWN   LHR                  '
p1040
aS'GARDEN BL GARDEN TOWN      LHR                  '
p1041
aS'H NO  GARDEN BLOCK          NEW GARDEN TOWN LHR  '
p1042
aS'GARDEN BLK NGT             LHR                  '
p1043
aS'GARDEN BLOCK GARDEN TOWN   LHR                  '
p1044
aS'GARDEN BLOCK GARDEN TOWN   LHR                  '
p1045
aS'A GARDEN BLK GARDEN T      LHR                  '
p1046
aS'A GARDEN BLOCK             NEW GARDEN TOWN LHR  '
p1047
aS'GARDEN BLOCK               LHR                  '
p1048
aS'WORLD CALL MULTI MEDIA LTD    NEAR  GARDEN BLK L '
p1049
aS'GARDEN BLOCK GARDEN TOWN   LHR                  '
p1050
aS'GARDEN BLOCK               LHR                  '
p1051
aS'GARDEN BLOCK               LHR                  '
p1052
aS'GARDEN BLOCK               LHR                  '
p1053
aS'GARDEN B G TOWN            LHR                  '
p1054
aS'A GARDEN BL N G TOWN        LHR                  '
p1055
aS'GARDEN BLOCK GARDEN TOWN   LHR                  '
p1056
aS'GARDEN BLK                LHR               N  '
p1057
aS'H GARDEN BLK NGTOWN     LHR                  '
p1058
aS'GARDEN TOWN               LHR                  '
p1059
aS'GARDEN BLOCK GARDEN TOWN  LHR                  '
p1060
aS'GARDEN TOWN                LHR                  '
p1061
aS'H  GARDEN TOWN              LHR                  '
p1062
aS'GARDEN BLOCK              GARDEN TOWN LHR      '
p1063
aS'H NO  GARDEN BLOCK         NEW GARDEN TOWN LHR  '
p1064
aS'HNO STREET MOHALA GARDEN BLOCK GARDEN TOWN LH '
p1065
aS'A NEW GARDEN TOWN          LHR                  '
p1066
aS'B NEW GARDEN TOWN          LHR                  '
p1067
aS'GARDEN BLOCK              NEW GARDEN TOWN LHR  '
p1068
aS'GARDEN TOWN                LHR                  '
p1069
aS'GARDEN BL NGTOWN         LHR                  '
p1070
aS'GARDEN TOWN                LHR                  '
p1071
aS'JIWAN HANA GARDAN TOWN        LHR                  '
p1072
aS'GARDEN BLOCK              GARDEN TOWN LHR      '
p1073
aS'A GARDEN BLOCK G TOWN     LHR                  '
p1074
aS'H  GARDEN TOWN NR TIVARMANALHR                  '
p1075
aS'GARDEN BLOCK GARDEN TOWN  LHR                  '
p1076
aS'GARDEN BLOCK GARDEN TOWN  LHR                  '
p1077
aS'GARDEN BLOCK GARDEN TOWN  LHR                  '
p1078
aS'GARDEN BLOCK GARDEN TOWN  LHR                  '
p1079
aS'GARDEN BLK NGTOWN       LHR                  '
p1080
aS'GARDEN BLOCK GARDEN TOWN  LHR                  '
p1081
aS'GARDEN BLK N G TOWN       LHR                  '
p1082
aS'B GARDEN TOWN BLK         GARDEN LHR           '
p1083
aS'GARDEN BLOCK N G TOWN     LHR                  '
p1084
aS'GARDEN BLCOK              GARDEN TOWN LHR      '
p1085
aS'A GARDEN BLK NGTOWN     LHR                  '
p1086
aS'A GARDEN BLK NG TOWN     LH                   '
p1087
aS'GARDEN BLOCK              NEW GARDEN TOWN LHR  '
p1088
aS'GARDEN BLOCK              NEW GARDEN TOWN LHR  '
p1089
aS'GARDEN BLOCK              NEW GARDEN TOWN LAHO '
p1090
aS'A GARDEN BL N GAR TOWN    LHR                  '
p1091
aS'GARDEN BLOCK              NEW GARDEN TOWN LHR  '
p1092
aS'NEW GARDEN TOWN           LHR                  '
p1093
aS'GARDEN BLOCK GTOWN        LHR                  '
p1094
aS'GARDEN BLOCK G TOWN       LHR                  '
p1095
aS'GARDEN BLOCK              GARDEN TOWN LHR      '
p1096
aS'GARDEN BLOCK              NEW GTOWN           '
p1097
aS'HNO GARDEN BLOCK NEW     GARDEN TOWN LHR      '
p1098
aS'HNO  GARDEN BLOCK NEW GARDEN TOWN LHR           '
p1099
aS'H NO  A I GARDEN BLOCK     NEW GARDEN TOWN LHR  '
p1100
aS'GARDEN BLOCK              NEW GARDEN TOWN      '
p1101
aS'GARDEN BL GARDEN TOWN     LHR                  '
p1102
aS'G BLK GARDEN TOWN         LHR                  '
p1103
aS'GARDEN BLOCK              NEW GARDEN TOWN LHR  '
p1104
aS'GARDEN BLK N G TOWN       LHR                  '
p1105
aS'GARDEN BLOCK              NEW GARDEN TOWN LHR  '
p1106
aS'GARDEN BLOCK G TOWN       LHR                  '
p1107
aS'GARDEN BLOCK GARDEN TOWN  LHR                  '
p1108
aS'GARDEN BLOCK              GARDEN TOWN LHR      '
p1109
aS'A GARDEN BLOCK            GARDEN TOWN LHR      '
p1110
aS'GARDEN TOWN                 LHR                  '
p1111
aS'H  NEW GARDEN TOWN           LHR                  '
p1112
aS'GARDEN TOWN                 LHR                  '
p1113
aS'I GARDEN BLK NEW GARDEN TOLHR                  '
p1114
aS'H NO  A GARDEN BLOCK       NEW GARDEN TOWN LHR  '
p1115
aS'GARDEN BLOCK              NEW GARDEN TOWN LHR  '
p1116
aS'GARDEN BLOCK              NEW GARDEN TOWN LHR  '
p1117
aS'GARDEN BLOCK              NEW GARDEN TOWN LHR  '
p1118
aS'A GARDEN BLOCK            NEW GARDEN TOWN LHR  '
p1119
aS'GARDEN BLOCK              NEW GARDEN TOWN LHR  '
p1120
aS'A NEW GARDEN TOWN          LHR                  '
p1121
aS'GARDEN BLOCK GARDEN TOWN  LHR UPPER PORTION  '
p1122
aS'GARDEN BLOCK              GARDEN TOWN          '
p1123
aS'GARDEN BLOCK              NEW GARDEN TOWN LHR  '
p1124
aS'GARDEN BLOCK              NEW GARDEN TOWN LHR  '
p1125
aS'GARDEN BLOCK              NEW GARDEN TOWN LHR  '
p1126
aS'GARDEM TOWN BLOCK     NEW GARDEN TOWN LHR  '
p1127
aS'GARDEN BLOCK              NEW GARDEN TOWN LHR  '
p1128
aS'GARDEN BLOCK              NEW GTOWN           '
p1129
aS'A GARDEN BLOCK          NEW GARDEN TOWN      '
p1130
aS'B GARDEN TOWN             LHR                  '
p1131
aS'GARDEN BLOCK               NEW GARDEN TOWN LHR  '
p1132
aS'GARDEN BLOCK N GTOWN     LHR                  '
p1133
aS'B GARDEN BLOCK            GARDEN TOWN LHR      '
p1134
aS'A GARDEN BLOCK            NEW GARDEN TOWN LHR  '
p1135
aS'C GARDEN BLOCK            GARDEN TOWN LHR      '
p1136
aS'GARDEN BLOCK              NEW GARDEN TOWN LHR  '
p1137
aS'A GARDEN BLOCK GARDEN TOWNLHR                  '
p1138
aS'GARDEN TOWN ICHRA          LHR                  '
p1139
aS'GARDEN BLK NEW GARDEN TOWN LHR                  '
p1140
aS'GARDEN BLOCK              NEW GARDEN TOWN LHR  '
p1141
aS'GARDEN BLOCK              NEW GARDEN TOWN LHR  '
p1142
aS'GARDEN BLK NGTOWN       LHR                  '
p1143
aS'GARDEN BLOCK              NEW GARDEN TOWN LHR  '
p1144
aS'GARDEN BLOCK              GARDEN TOWN LHR      '
p1145
aS'A GARDEN BLOCK            GARDEN TOWN LHR      '
p1146
aS'HNO GARDEN TOWN BLOCK NEWGARDEN TOWN LHR      '
p1147
aS'A GARDEN BLK G TOWN       LHR                  '
p1148
aS'A GARDEN BLOCK NEW GARDEN TOWN LHR             '
p1149
aS'GAREN BLOCK GARDEN TOWN   LHR                  '
p1150
aS'A GARDEN BLOCK            NEW GARDEN TOWN LHR  '
p1151
aS'H B GRBL GARDEN TOWN     LHR                  '
p1152
aS'B G BLK G TOWN            LHR                  '
p1153
aS'A GARDEN BLOCK            NEW GARDEN TOWN LHR  '
p1154
aS'GARDEN BLOCK GARDEN TOWN  LHR                  '
p1155
aS'B GARDEN BLOCK            GARDEN TOWN LHR      '
p1156
aS'NEW GARDEN TOWN           LHR                  '
p1157
aS'NEW GARDEN TOWN                               '
p1158
aS'GARDEN BLK GARDEN TOWN     LHR                  '
p1159
aS'A GARDEN B N G TOWN        LHR                  '
p1160
aS'B GARDEN BLOCK             NEW GARDEN TOWN LHR  '
p1161
aS'C GARDEN BLK               NEW GARDEN TOWN LHR  '
p1162
aS'A NEW GARDEN TOWN          LHR                  '
p1163
aS'H NO  GARDEN BLOCK          NEW GARDEN TOWN LHR  '
p1164
aS'I GARDEN BLOCK             NEW GARDEN TOWN LHR  '
p1165
aS'C GARDEN BLOCK             NEW GARDEN TOWN LHR  '
p1166
aS'GARDEN TOWN               LHR                  '
p1167
aS'A GARDEN BLOCK             GARDEN TOWN LHR      '
p1168
aS'GARDEN BLK G TOWN         LHR                  '
p1169
aS'GARDEN BL  A GARDEN TOWN    LHR                  '
p1170
aS'A GARDEN TOWN              GULBERG LHR          '
p1171
aS'A NEW GARDENT TOWN         LAHORE               '
p1172
aS'ROSE GARDEN GARDE N TOWN      B GARDEN TOWN LHR  '
p1173
aS'H NO  SHOAIB STREET          NEW GARDEN TOWN LHR  '
p1174
aS'GARDEN BLOCK NEW GARDEN   TOWN LHR             '
p1175
aS'H LDA SCHEME JEVAN HANA     GARDEN TOWN LHR      '
p1176
aS'H NO  ST NO  JEVAN HANA     GARDEN TOWN LHR      '
p1177
aS'H NO  ST NO JEVAN HANA NEW GARDEN TOWN      '
p1178
aS'H NO  MARRIAM STREET         JEEVAN HANA GARDEN T '
p1179
aS'MARRAYAM ST NO  JIWAN HANA   GARDEN TOWN LHR      '
p1180
aS'H NO ST NO JEVEN HANA     NEW GARDEN TOWN LAHO '
p1181
aS'STNO JEVAN HANA              GARDEN TOWN          '
p1182
aS'H NO  JOHAR STREET          JEEVAN HANA GARDEN T '
p1183
aS'MOTI STREET JEVAN HANA        GARDEN TOWN          '
p1184
aS'GARDAN BLOCK NEW GARDAN   TOWN LHR             '
p1185
aS'SHAH DI KHOI FATEH SINGH      WALA NEW CAMPUS      '
p1186
aS'H NO  STAFF COLONY ROAD  RECERCH LABORATORY   '
p1187
aS'ROAD RESEARCH STAF COLONY NEW CAMPUS           '
p1188
aS'SHOP NO RESERCH STAFF COLONYUNIVERSTY ROAD LAHOR '
p1189
aS'PD  BUILDING RESEARCH        STATION NEW CAMPUS L '
p1190
aS'B BUILDING RESERCH          STATION NEW CAMPUS   '
p1191
aS'SHAH DI KHOI NEW CAMPUS                            '
p1192
aS'SHAH DE KHOOI FATEH SINGH     NEW CAMPUS LHR       '
p1193
aS'SHAH DE KHOOI FATEH SINGH WALANEW CAMPUS LHR       '
p1194
aS'H NO  YOUHANNA STREET SHAH DEKHOOI NEW CAMPUS LHR '
p1195
aS'H NO  YOUHANNA STREET SHAH DEKHOOI NEW CAMPUS LHR '
p1196
aS'SHAH DI KHOI FATEH SINGH WALA                      '
p1197
aS'SHAH THE KHOI DHANA SINGH     LHR                  '
p1198
ag1194
aS'H NO HAMZA STREET           SHAH DE KHOI LAHORE  '
p1199
aS'SHAH DI KHOI DAK KHANA        NEW CAMPUS           '
p1200
aS'H NO  ST NO SHAH DEE    KHOI FATEH SING WALA '
p1201
aS'SHAH DI KHOI FATEH SINGH       NEW CAMPUS          '
p1202
aS'H NO  BILAL STREET        SHAH DI KHOI FATEH S '
p1203
aS'HOUSE NO BILAL STREET      SHAH DI KHOEE        '
p1204
aS'SHAH DEE KHOI NEW CAMPUS      LAHORE               '
p1205
aS'SHAH DEE KHOI                 ISLAMIC CENTER       '
p1206
aS'SHAH DEE KHOI FATEH SINGH WALANEW CAMPUS           '
p1207
aS'SHAH THE KHOI FATEH SINGH     LHR                  '
p1208
aS'SHAH THE KHOI FATEH SINGH     ISLAMIC CENTRE       '
p1209
aS'H NO  USMAN STREET          SHAH DE KHOOI FATEH  '
p1210
aS'USMAN STREET SHAH DE KHOOI    NEW CAMPUS LHR       '
p1211
aS'SHAH DEE KHOI  NEW  CAMPUS                         '
p1212
aS'ST  FATEH SINGH SHAH THE     KHOI NEW CAMPUS  LHR '
p1213
aS'SHAH DI KHOI                                       '
p1214
ag1208
aS'FATEH SING SHAH DE KHOY       LHR                  '
p1215
aS'SHAH THE KHOI FATEH SINGH     WALA LHR             '
p1216
aS'HUSSAIN STREET SHAH DE KHOI   FATEH SINGH WALA     '
p1217
ag1193
aS'SHAH DI KHOI FATEH SINGH      NEW CAMPUS           '
p1218
aS'SHAH DEE KHOI FATEH           SINGH WALA           '
p1219
aS'SHAH DE KHOOI NEW CAMPUS      LHR                  '
p1220
ag1194
aS'H NO  UMAR STREET         SHAH DI KHOI NEW CAM '
p1221
aS'H NO SHAH DI KHOI DHANA    SINGH WALA           '
p1222
aS'SHAH DI KHOI FATEH SINGH                           '
p1223
aS'OPP MS HOUSE A JINNAH     COLONY PTCL MSAG EQU '
p1224
aS'PLOT NOIZHAR VILLAZ        WAFAQI COLY         '
p1225
aS'PLOT NO   IZHAR VILLAS     NR WAFAQI COLONI    '
p1226
aS'H NO  IZHAR HOUSING        COLONY NR WAFAQI CO '
p1227
aS'KHASRA NO  WAFAQI COLONY LHR                  '
p1228
aS'A NEW CAMPUS DHANNA SINGH WAFAQI CLY LHR       '
p1229
aS'B WAFAQI COLONY            LHR                  '
p1230
aS'B WAFAQI COLONY            LHR                  '
p1231
aS'C TYPE WAFAQI COLONY      LHR                  '
p1232
aS'SHAH DEE KHOI DHANA SINGH     WALA WAFAQI COLONY   '
p1233
aS'B  FAISAL TOWN            LHR                  '
p1234
aS'H NO ST  KOTHE PIND        FAISAL TOWN          '
p1235
aS'ST NO  KOTHA PIND          FAISAL TOWN          '
p1236
aS'D FAISAL TOWN             LHR                  '
p1237
aS'M BLOCK MODEL TOWN        EXT LAHORE           '
p1238
aS'AHMAD BLOCK GARDEN TOWN     LAHORE               '
p1239
aS'AAHMAD BLOCK NEW GARDEN  TOWN LAHORE          '
p1240
aS'GARDEN TOWN                 LHR                  '
p1241
aS'FEROZEPUR ROAD LAHORE                              '
p1242
aS'A NEW GARDEN TOWN          LAHORE               '
p1243
aS'OPP QADDAFI STADIUM           LAHORE              '
p1244
aS'SHAH DE KHOI NEW CAMPUS       LAHORE              '
p1245
aS'SOUTH WASA LDA GARDEN BLK     GT                   '
p1246
aS'CANAL BRIDGE NEW CAMPUS SEASONCHOWK STREET LIGHT '
p1247
aS'HOSTEL   CANAL ROAD PUNJAB  UNIVERSITY LAHORE    '
p1248
aS'C AHMAD BLOCK NEW GARDEN   TOWN LAHORE          '
p1249
ag663
aS'LHR                  '
p1250
aS'BUS STOP SHALTER CANAL BRIDGE BARKAT MKT NEW GARDE '
p1251
aS'HNOD            NEW MUSLIM TOWN LHR  '
p1252
aS'AHMED BL                  NEW GARDEN TOWN LHR  '
p1253
aS'S  H  AHMAD PARK           LHR                  '
p1254
aS'AHMAD PARK G TOWN          LHR                  '
p1255
aS'AHMAD PARK                LHR                  '
p1256
aS'EXECUTIVE ENGINEER AHMED PARK LHR                  '
p1257
aS'OPP QADAFI STADIUM            LAHORE               '
p1258
aS'TRANSPORT TRAINING SHOP  FPLHR                  '
p1259
aS'BODY BLDG FEROZE PUR RD       LHR                  '
p1260
aS'F PUR RD                      LHR                  '
p1261
aS'GARDEN BLK                 LHR            N     '
p1262
aS'GARDEN BLK                 LHR            N     '
p1263
aS'KACHI ABADI AHMED PARK        HALI ST GARDEN TOWN  '
p1264
aS'NAI ABDI AHMAD PARK           LHR                  '
p1265
aS'GARDEN BLK G T             L                    '
p1266
aS'GARDEN TOWN            LHR                  '
p1267
aS'GARDEN TOWN                LHR                  '
p1268
aS'GARDEN BLOCK          NEW GARDEN TOWN LHR  '
p1269
aS'GARDAN TOWN                LAHORE               '
p1270
aS'GARDEN BL GARDEN TOWN      LHR                  '
p1271
aS'H GARDEN TOWN                 LHR                  '
p1272
aS'GARDEN BLOCK GARDEN TOWN   LHR                  '
p1273
aS'GARDEN BLOCK GARDEN TOWN   LHR                  '
p1274
aS'NR G T GRID F PUR RD          LHR                  '
p1275
aS'KOHKHA GARDON TOWN BUS STOP   LHR                  '
p1276
aS'A GARDEN BLOCK GARDEN TOWN LHR                  '
p1277
aS'FEROOZ PUR RD                 LHR                  '
p1278
aS'A FEROZEPUR RD             LHR                  '
p1279
aS'F PUR RD                  LHR                  '
p1280
aS'H  GARDEN TOWN               LHR                  '
p1281
aS'H  ST  G BLK NEW GARDEN TOWLHR                  '
p1282
aS'H  FEROZEPUR RD              LHR                  '
p1283
ag475
aS'H BGARDEN TOWN              LHR                  '
p1284
aS'MALARIA ERADICATION PROGRAME  LHR                  '
p1285
aS'H B GARDEN TOWN              LHR                  '
p1286
aS'FEROZ PUR RD                  LHR                  '
p1287
aS'SINGH BOARD GOLD STAR KALMA   CHOWK FEROZE PUR ROA '
p1288
aS'BUS STOP N G T PAN SHAP       LR                   '
p1289
aS'SHOP  GARDEN TOWN            LHR                  '
p1290
aS'GARDAN TOWN F PUR RD          LHR                  '
p1291
aS'SHOP  N GARDEN TOWN          LHR                  '
p1292
aS'BUNGALOW N  F P RD           LHR                  '
p1293
aS'SNEW GARDEN T         LHR                  '
p1294
aS'GARDEN TOWN                 LHR                  '
p1295
aS'S GARDEN TOWN              LHR                  '
p1296
aS'H  GARDEN TOWN              LHR                  '
p1297
aS'KHOOKHA GARDEN TOWN BUS STOP  LHR                  '
p1298
aS'JEWANHANA                     LAHORE               '
p1299
aS'JEVEN HANA GARDEN TOWN        LHR                  '
p1300
aS'V J HANA GARDEN TOWN          LHR                  '
p1301
aS'JEWEN HANA                    LHR                  '
p1302
aS'JEVEN HANA                    LHR                  '
p1303
ag475
aS'H  JIWAN HANA               LHR                  '
p1304
aS'V J HANA MODEL TOWN           LHR                  '
p1305
aS'H NO  ST NO  JIWANA HANA    GARDEN TOWN LHR      '
p1306
aS'SO ALLAH DITTA JAVENHANA      LHR                  '
p1307
aS'ST  JIVEN HANA               LHR                  '
p1308
aS'JEVAN HANA G TOWN             LHR                  '
p1309
ag1302
ag1303
aS'FEROZEPUR ROAD                LHR                  '
p1310
aS'FEROZEPUR RD                  LHR                  '
p1311
aS'FEROZE PUR RD                 LHR                  '
p1312
aS'OCCOPANT                      LHR                  '
p1313
aS'FPUR RD G TOWN             LHR                  '
p1314
aS'LMC AHMAD BLOCK            LHR                  '
p1315
aS'LMC AHMAD BLOLK            LHR                  '
p1316
aS'SIGHN BOARD F PUR RD AQIB PSO PETROL PUMP LHR      '
p1317
aS'NADIR STREET JEWAN HANA       NEW GARDEN TOWN LHR  '
p1318
aS'SHAH DE KHOOYEE DHANA SING    WALA LHR             '
p1319
aS'SHAH DEE KOHAY LHR                                 '
p1320
aS'SHAH DI KHOI                  LHR                  '
p1321
aS'A ALI BLOCK GARDEN TOWN    LHR                  '
p1322
aS'AHMED BLOCK G FOOR         GARDEN TOWN LHR      '
p1323
aS'H NO  AKBAR STREET         JEVEN HANA GARDEN TO '
p1324
aS'SHAH DI KHOY                  LHR                  '
p1325
aS'AHMAD BL N G TOWN          LHR                  '
p1326
aS'AHMED BLK GARDEN TOWN      LHR                  '
p1327
aS'AHMED BLK GARDEN TOWN     LHR                  '
p1328
aS'OPPRAJA MARKET               GARDEN TOWN LHR      '
p1329
aS'GARDEN BLOCK               NEW GARDEN TOWN LHR  '
p1330
aS'H NO  GARDEN BLOCK          NEW GARDEN TOWN LHR  '
p1331
aS'WAVES COOL INDEUSTRIES KALMA  CHOWK FEROZPUR ROAD  '
p1332
aS'NEAR  GARDEN BLOCK         GARDEN TOWN LHR      '
p1333
aS'GARDEN BLOCK              GARDEN TOWN LHR      '
p1334
ag1303
aS'H  NADAR ST JIWAN HANA     LHR                  '
p1335
aS'AHMAD BLOCK NEW GARDEN TOWN LHR                  '
p1336
aS'GARDEN BLOCK               NEW GARDEN TOWN LHR  '
p1337
aS'SHAH DI KHOTI NEAR UNIVERSITY LAW COLLAGE NEW CAMP '
p1338
aS'H  ST  JEEVAN HANA         GARDEN TOWN LHR      '
p1339
aS'GARDEN BLOCK               NEW GARDEN TOWN LHR  '
p1340
aS'AHMAD BLK                   NGTOWN LHR         '
p1341
aS'GARDEN BLK                  NEW GARDEN TOWN LHR  '
p1342
aS'GARDEN BLOCK              NEW GARDEN TOWN LHR  '
p1343
aS'H NO  ST NO  JEVAN HANA     GARDEN TOWN LHR      '
p1344
aS'LDA QUARTER NO  JEEVEN HANA  NEW GARDEN TOWN LHR  '
p1345
aS'LDA FLAT NO  JEEVAN HANA     NEW GARDEN TOWN NEAR '
p1346
aS'H NO  ST NO  JEEVAN HANA    GARDEN TOWN LHR      '
p1347
aS'SIGHN BOARD UNDER PASS        JINNAH HOSPITAL LHR  '
p1348
aS'CADDAFI STADIUM FROZ PUR RD   LHR                  '
p1349
aS'AMJAD NURSERY GADDAFI STADIUM LHR                  '
p1350
aS'PLOT NO C GARDEN BLK       GARDEN TOWN LHR      '
p1351
aS'GARDEN BLK N G TOWN        LHR                  '
p1352
aS'ST NO  JEVAN HANA            GARDEN TOWN LHR      '
p1353
aS'SIGN BOARD NR KFC BARKAT      MARKEET GARDEN TOWN  '
p1354
aS'SIGHN BOARD MAIN CAMPUS RD    NEAR CAMPUS PUL LHR  '
p1355
aS'SIGHN BOARD NR  AHMED BLK NEW GARDEN TOWN LHR  '
p1356
aS'SIGHN BOARD FEROZ PUR RD ZAHIDCENTRE NR  GARDEN  '
p1357
aS'ADSERVICE HAFEEZ CHAMBER   SHAHRA E QAIDEAZAM '
p1358
aS'OPP DAEWOO ADDA FEROZAE PUR   ROAD LHR             '
p1359
aS'GARDEN BLOCK            GARDEN TOWN LHR      '
p1360
aS'AHMED BLOCK             NEW GARDEN TOWN LHR  '
p1361
aS'JEVEN HANA G TOWN             LHR                  '
p1362
ag1362
aS'JIWAN HANA GARDEN TOWN        NEAR SHAKOOR SHAH DA '
p1363
aS'NARASH MALIK SIGN BOARD       FEROZPURE ROAD LHR   '
p1364
aS'SIGN BOARD NARASH MILK        PUNJAB UNIVERSITY LH '
p1365
aS'SINGH BOARD HONDA MOTOR CYCLE LKALMA CHOWK FEROZE  '
p1366
aS'SIGN BOARD NEAR               MASOOD HOSPITAL F PU '
p1367
aS'NEON SIGHN ZAINAB HOSPITAL    GARDEN TOWN LHR      '
p1368
aS'SIGHN BOARD BARKAT MKT        OPP PAKTEL GATE LHR '
p1369
aS'SIGHN BOARD MAIN BULEWARD NR  TOTAL PETROL PUMP A  '
p1370
aS'EXPORT PROMOTION BUREU         GARDEN BLOCK  N G '
p1371
aS'ABU BAKER BL N GARDEN TOWNLHR                  '
p1372
aS'A AHMED BLOCK               NEW GARDEN TOWN LHR  '
p1373
aS'A AHMAD BLOCK NEW GARDAN TOWNLHR                  '
p1374
aS'D AHMAD BLOCK NEW GARDEN  TOWM LAHORE          '
p1375
aS'AHMAD BLOCK GARDEN TOWN    LHR                  '
p1376
aS'AHMAD BLOCK GARDEN TOWN    LHR                  '
p1377
aS'A AHMED BLK N G TOWN      LHR                  '
p1378
aS'AHMAD PARK                LHR                  '
p1379
aS'B I  AHMED BL G TOWN         LHR                  '
p1380
aS'AHMED BLOCK G TOWN         LHR                  '
p1381
aS'AHMED BLOCK G TOWN         LHR                  '
p1382
aS'AHMAD BLOCK                NGARDEN TOWN LHR    '
p1383
aS'AHMED BLK NGTOWN         LHR                  '
p1384
aS'AHMED BLOCK GARDEN TOWN   LHR                  '
p1385
aS'AHMED BL G TOWN           LHR                  '
p1386
aS'AHMED BL G TOWN           LHR                  '
p1387
aS'A AHMED BLOCK              NEW GARDEN TOWN LHR  '
p1388
aS'AI AHME BLOCK             NEW GARDEN TOWN LHR  '
p1389
aS'B I AHMED BLOCK            GARDEN TOWN LHR      '
p1390
aS'H NO AHMED BLOCK NEW      GARDEN TOWN LHR      '
p1391
aS'AHMAD BL NEW GARDEN TOWN  LHR                  '
p1392
aS'H NO B AHMED BLOCK NEW    GARDEN TOWN LAHORE   '
p1393
aS'AHMAD BLK GTOWN         LHR                  '
p1394
aS'AHMED BL GARDEN TOWLHR                  '
p1395
aS'AHMED BLK N G TOWN        LHR                  '
p1396
aS'TOP FLOOR  AHMED BLOCK     NEW GARDEN TOWN LHR  '
p1397
aS'AHMED BLOCK N GARDEN TOWN LHR                  '
p1398
aS'AHMED BLK N G TOWN        LHR                  '
p1399
aS'A AHMAD B G TOWN          LHR                  '
p1400
aS'AHMAD BLK NEW GARDEN TOWN LHR                  '
p1401
aS'PROPERTY NO  AHMED BLOCK   NEW GARDEN TOWN LHR  '
p1402
aS'PLOT NO  AHMED BLOCK       NEW GARDEN TOWN LHR  '
p1403
aS'A AHMAD BL GARDEN TOWN    LAHORE               '
p1404
aS'AHMAD BL N G TOWN         LHR                  '
p1405
aS'A GARDEN BLOCK             NEW GARDEN TOWN LHR  '
p1406
aS'GARDEN BLOCK GTOWN       LHR                  '
p1407
aS'B GARDEN BLK N G TOWN      LHR                  '
p1408
aS'S JIWAN HANA GARDEN    TOWN LHR             '
p1409
aS'GARDEN BLOCK              NEW GARDEN TOWN LHR  '
p1410
aS'S NO  KIRAN MKT WAFAQI CLY  LHR                  '
p1411
aS'GARDEN BLOCK               NEW GARDEN TOWN LHR  '
p1412
a.